   1               		.file	"main.c"
   2               	__SREG__ = 0x3f
   3               	__SP_H__ = 0x3e
   4               	__SP_L__ = 0x3d
   5               	__CCP__  = 0x34
   6               	__tmp_reg__ = 0
   7               	__zero_reg__ = 1
  15               	.Ltext0:
  16               	.global	delay1s
  18               	delay1s:
  19               	.LFB8:
  20               	.LM1:
  21               	/* prologue: function */
  22               	/* frame size = 0 */
  23               	.LM2:
  24 0000 20E0      		ldi r18,lo8(0)
  25               	.LVL0:
  26               	.LBB42:
  27               	.LBB43:
  28               	.LBB44:
  29               	.LBB45:
  30               	.LM3:
  31 0002 40E4      		ldi r20,lo8(-25536)
  32 0004 5CE9      		ldi r21,hi8(-25536)
  33               	.L2:
  34 0006 CA01      		movw r24,r20
  35               	.LVL1:
  36               	/* #APP */
  37               	 ;  105 "c:/winavr/lib/gcc/../../avr/include/util/delay_basic.h" 1
  38 0008 0197      		1: sbiw r24,1
  39 000a 01F4      		brne 1b
  40               	 ;  0 "" 2
  41               	/* #NOAPP */
  42               	.LBE45:
  43               	.LBE44:
  44               	.LBE43:
  45               	.LBE42:
  46               	.LM4:
  47 000c 2F5F      		subi r18,lo8(-(1))
  48 000e 2436      		cpi r18,lo8(100)
  49 0010 01F4      		brne .L2
  50               	/* epilogue start */
  51               	.LM5:
  52 0012 0895      		ret
  53               	.LFE8:
  55               	.global	Timer2_Init
  57               	Timer2_Init:
  58               	.LFB9:
  59               	.LM6:
  60               	/* prologue: function */
  61               	/* frame size = 0 */
  62               	.LM7:
  63 0014 14BC      		out 68-32,__zero_reg__
  64               	.LM8:
  65               	/* #APP */
  66               	 ;  269 "main.c" 1
  67 0016 7894      		sei
  68               	 ;  0 "" 2
  69               	/* epilogue start */
  70               	.LM9:
  71               	/* #NOAPP */
  72 0018 0895      		ret
  73               	.LFE9:
  75               	.global	Timer2_Start
  77               	Timer2_Start:
  78               	.LFB10:
  79               	.LM10:
  80               	/* prologue: function */
  81               	/* frame size = 0 */
  82               	.LM11:
  83 001a 85B5      		in r24,69-32
  84 001c 8660      		ori r24,lo8(6)
  85 001e 85BD      		out 69-32,r24
  86               	.LM12:
  87 0020 89B7      		in r24,89-32
  88 0022 8064      		ori r24,lo8(64)
  89 0024 89BF      		out 89-32,r24
  90               	/* epilogue start */
  91               	.LM13:
  92 0026 0895      		ret
  93               	.LFE10:
  95               	.global	Timer2_Stop
  97               	Timer2_Stop:
  98               	.LFB11:
  99               	.LM14:
 100               	/* prologue: function */
 101               	/* frame size = 0 */
 102               	.LM15:
 103 0028 83B7      		in r24,83-32
 104 002a 897F      		andi r24,lo8(-7)
 105 002c 83BF      		out 83-32,r24
 106               	.LM16:
 107 002e 89B7      		in r24,89-32
 108 0030 8F7B      		andi r24,lo8(-65)
 109 0032 89BF      		out 89-32,r24
 110               	/* epilogue start */
 111               	.LM17:
 112 0034 0895      		ret
 113               	.LFE11:
 115               	.global	__vector_1
 117               	__vector_1:
 118               	.LFB14:
 119               	.LM18:
 120 0036 1F92      		push __zero_reg__
 121 0038 0F92      		push r0
 122 003a 0FB6      		in r0,__SREG__
 123 003c 0F92      		push r0
 124 003e 1124      		clr __zero_reg__
 125               	/* prologue: Signal */
 126               	/* frame size = 0 */
 127               	.LM19:
 128 0040 1092 0000 		sts SG+8,__zero_reg__
 129               	.LM20:
 130 0044 6A9A      		sbi 45-32,2
 131               	.LM21:
 132 0046 1092 0000 		sts SG+13,__zero_reg__
 133               	.L12:
 134               	.LM22:
 135 004a 829B      		sbis 48-32,2
 136 004c 00C0      		rjmp .L12
 137               	/* epilogue start */
 138               	.LM23:
 139 004e 0F90      		pop r0
 140 0050 0FBE      		out __SREG__,r0
 141 0052 0F90      		pop r0
 142 0054 1F90      		pop __zero_reg__
 143 0056 1895      		reti
 144               	.LFE14:
 146               	.global	Timer1_Start
 148               	Timer1_Start:
 149               	.LFB17:
 150               	.LM24:
 151               	.LVL2:
 152               	/* prologue: function */
 153               	/* frame size = 0 */
 154               	.LM25:
 155 0058 8230      		cpi r24,lo8(2)
 156 005a 01F0      		breq .L18
 157 005c 8330      		cpi r24,lo8(3)
 158 005e 00F0      		brlo .L16
 159               	.L21:
 160 0060 8430      		cpi r24,lo8(4)
 161 0062 01F0      		breq .L19
 162 0064 8830      		cpi r24,lo8(8)
 163 0066 01F4      		brne .L16
 164 0068 00C0      		rjmp .L25
 165               	.L18:
 166               	.LM26:
 167 006a 83E0      		ldi r24,lo8(3)
 168 006c 90E0      		ldi r25,hi8(3)
 169               	.LVL3:
 170 006e 00C0      		rjmp .L24
 171               	.LVL4:
 172               	.L19:
 173               	.LM27:
 174 0070 81E0      		ldi r24,lo8(1)
 175 0072 90E0      		ldi r25,hi8(1)
 176               	.LVL5:
 177 0074 00C0      		rjmp .L24
 178               	.LVL6:
 179               	.L25:
 180               	.LM28:
 181 0076 1BBC      		out (74)+1-32,__zero_reg__
 182 0078 1ABC      		out 74-32,__zero_reg__
 183 007a 00C0      		rjmp .L22
 184               	.L16:
 185               	.LM29:
 186 007c 87E0      		ldi r24,lo8(7)
 187 007e 90E0      		ldi r25,hi8(7)
 188               	.LVL7:
 189               	.L24:
 190 0080 9BBD      		out (74)+1-32,r25
 191 0082 8ABD      		out 74-32,r24
 192               	.LVL8:
 193               	.L22:
 194               	.LM30:
 195 0084 80E4      		ldi r24,lo8(64)
 196               	.LVL9:
 197 0086 8FBD      		out 79-32,r24
 198               	.LM31:
 199 0088 89E0      		ldi r24,lo8(9)
 200 008a 8EBD      		out 78-32,r24
 201               	/* epilogue start */
 202               	.LM32:
 203 008c 0895      		ret
 204               	.LFE17:
 206               	.global	Timer1_Stop
 208               	Timer1_Stop:
 209               	.LFB18:
 210               	.LM33:
 211               	/* prologue: function */
 212               	/* frame size = 0 */
 213               	.LM34:
 214 008e 1EBC      		out 78-32,__zero_reg__
 215               	/* epilogue start */
 216               	.LM35:
 217 0090 0895      		ret
 218               	.LFE18:
 221               	LCDsendstream:
 222               	.LFB7:
 223               	.LM36:
 224               	.LVL10:
 225               	/* prologue: function */
 226               	/* frame size = 0 */
 227               	.LM37:
 228 0092 0E94 0000 		call LCDsendChar
 229               	.LVL11:
 230               	.LM38:
 231 0096 80E0      		ldi r24,lo8(0)
 232 0098 90E0      		ldi r25,hi8(0)
 233               	/* epilogue start */
 234 009a 0895      		ret
 235               	.LFE7:
 237               		.data
 238               	.LC0:
 239 0000 2020 2020 		.string	"    %5uHz"
 239      2535 7548 
 239      7A00 
 240               	.LC1:
 241 000a 2025 3575 		.string	" %5uMHz"
 241      4D48 7A00 
 242               	.LC2:
 243 0012 2025 3575 		.string	" %5uHz"
 243      487A 00
 244               		.text
 245               	.global	Freq_Update
 247               	Freq_Update:
 248               	.LFB13:
 249               	.LM39:
 250 009c CF93      		push r28
 251 009e DF93      		push r29
 252               	/* prologue: function */
 253               	/* frame size = 0 */
 254               	.LM40:
 255 00a0 8091 0000 		lds r24,SG
 256 00a4 8630      		cpi r24,lo8(6)
 257 00a6 01F4      		brne .L31
 258               	.LM41:
 259 00a8 80E0      		ldi r24,lo8(0)
 260 00aa 61E0      		ldi r22,lo8(1)
 261 00ac 0E94 0000 		call LCDGotoXY
 262               	.LM42:
 263 00b0 8091 0000 		lds r24,SG+15
 264 00b4 9091 0000 		lds r25,(SG+15)+1
 265 00b8 A091 0000 		lds r26,(SG+15)+2
 266 00bc B091 0000 		lds r27,(SG+15)+3
 267 00c0 00D0      		rcall .
 268 00c2 00D0      		rcall .
 269 00c4 EDB7      		in r30,__SP_L__
 270 00c6 FEB7      		in r31,__SP_H__
 271 00c8 3196      		adiw r30,1
 272 00ca 20E0      		ldi r18,lo8(.LC0)
 273 00cc 30E0      		ldi r19,hi8(.LC0)
 274 00ce CDB7      		in r28,__SP_L__
 275 00d0 DEB7      		in r29,__SP_H__
 276 00d2 3A83      		std Y+2,r19
 277 00d4 2983      		std Y+1,r18
 278 00d6 9383      		std Z+3,r25
 279 00d8 8283      		std Z+2,r24
 280 00da 0E94 0000 		call printf
 281 00de 0F90      		pop __tmp_reg__
 282 00e0 0F90      		pop __tmp_reg__
 283 00e2 0F90      		pop __tmp_reg__
 284 00e4 0F90      		pop __tmp_reg__
 285               	.L31:
 286               	.LM43:
 287 00e6 8091 0000 		lds r24,SG
 288 00ea 8830      		cpi r24,lo8(8)
 289 00ec 01F4      		brne .L32
 290               	.LM44:
 291 00ee 80E0      		ldi r24,lo8(0)
 292 00f0 61E0      		ldi r22,lo8(1)
 293 00f2 0E94 0000 		call LCDGotoXY
 294               	.LM45:
 295 00f6 2091 0000 		lds r18,SG+14
 296 00fa 00D0      		rcall .
 297 00fc 00D0      		rcall .
 298 00fe EDB7      		in r30,__SP_L__
 299 0100 FEB7      		in r31,__SP_H__
 300 0102 3196      		adiw r30,1
 301 0104 80E0      		ldi r24,lo8(.LC1)
 302 0106 90E0      		ldi r25,hi8(.LC1)
 303 0108 ADB7      		in r26,__SP_L__
 304 010a BEB7      		in r27,__SP_H__
 305 010c 1296      		adiw r26,1+1
 306 010e 9C93      		st X,r25
 307 0110 8E93      		st -X,r24
 308 0112 1197      		sbiw r26,1
 309 0114 2283      		std Z+2,r18
 310 0116 1382      		std Z+3,__zero_reg__
 311 0118 0E94 0000 		call printf
 312 011c 0F90      		pop __tmp_reg__
 313 011e 0F90      		pop __tmp_reg__
 314 0120 0F90      		pop __tmp_reg__
 315 0122 0F90      		pop __tmp_reg__
 316               	.L32:
 317               	.LM46:
 318 0124 8091 0000 		lds r24,SG
 319 0128 8823      		tst r24
 320 012a 01F0      		breq .L33
 321 012c 8091 0000 		lds r24,SG
 322 0130 8130      		cpi r24,lo8(1)
 323 0132 01F0      		breq .L33
 324 0134 8091 0000 		lds r24,SG
 325 0138 8230      		cpi r24,lo8(2)
 326 013a 01F0      		breq .L33
 327 013c 8091 0000 		lds r24,SG
 328 0140 8330      		cpi r24,lo8(3)
 329 0142 01F0      		breq .L33
 330 0144 8091 0000 		lds r24,SG
 331 0148 8430      		cpi r24,lo8(4)
 332 014a 01F0      		breq .L33
 333 014c 8091 0000 		lds r24,SG
 334 0150 8530      		cpi r24,lo8(5)
 335 0152 01F4      		brne .L35
 336               	.L33:
 337               	.LM47:
 338 0154 80E0      		ldi r24,lo8(0)
 339 0156 61E0      		ldi r22,lo8(1)
 340 0158 0E94 0000 		call LCDGotoXY
 341               	.LM48:
 342 015c 8091 0000 		lds r24,SG+4
 343 0160 9091 0000 		lds r25,(SG+4)+1
 344 0164 A091 0000 		lds r26,(SG+4)+2
 345 0168 B091 0000 		lds r27,(SG+4)+3
 346 016c 00D0      		rcall .
 347 016e 00D0      		rcall .
 348 0170 EDB7      		in r30,__SP_L__
 349 0172 FEB7      		in r31,__SP_H__
 350 0174 3196      		adiw r30,1
 351 0176 20E0      		ldi r18,lo8(.LC2)
 352 0178 30E0      		ldi r19,hi8(.LC2)
 353 017a CDB7      		in r28,__SP_L__
 354 017c DEB7      		in r29,__SP_H__
 355 017e 3A83      		std Y+2,r19
 356 0180 2983      		std Y+1,r18
 357 0182 9383      		std Z+3,r25
 358 0184 8283      		std Z+2,r24
 359 0186 0E94 0000 		call printf
 360 018a 0F90      		pop __tmp_reg__
 361 018c 0F90      		pop __tmp_reg__
 362 018e 0F90      		pop __tmp_reg__
 363 0190 0F90      		pop __tmp_reg__
 364               	.L35:
 365               	/* epilogue start */
 366               	.LM49:
 367 0192 DF91      		pop r29
 368 0194 CF91      		pop r28
 369 0196 0895      		ret
 370               	.LFE13:
 372               	.global	Menu_Update
 374               	Menu_Update:
 375               	.LFB12:
 376               	.LM50:
 377               	.LVL12:
 378 0198 1F93      		push r17
 379 019a CF93      		push r28
 380 019c DF93      		push r29
 381               	/* prologue: function */
 382               	/* frame size = 0 */
 383 019e 182F      		mov r17,r24
 384               	.LM51:
 385 01a0 0E94 0000 		call LCDclr
 386               	.LVL13:
 387               	.LM52:
 388 01a4 E091 0000 		lds r30,SG
 389 01a8 F0E0      		ldi r31,lo8(0)
 390 01aa EE0F      		lsl r30
 391 01ac FF1F      		rol r31
 392 01ae E050      		subi r30,lo8(-(MENU))
 393 01b0 F040      		sbci r31,hi8(-(MENU))
 394 01b2 8081      		ld r24,Z
 395 01b4 9181      		ldd r25,Z+1
 396 01b6 60E0      		ldi r22,lo8(0)
 397 01b8 40E0      		ldi r20,lo8(0)
 398 01ba 0E94 0000 		call CopyStringtoLCD
 399               	.LM53:
 400 01be 80E0      		ldi r24,lo8(0)
 401 01c0 61E0      		ldi r22,lo8(1)
 402 01c2 0E94 0000 		call LCDGotoXY
 403               	.LM54:
 404 01c6 8091 0000 		lds r24,SG
 405 01ca 8630      		cpi r24,lo8(6)
 406 01cc 01F4      		brne .L37
 407               	.LM55:
 408 01ce 80E0      		ldi r24,lo8(CLR)
 409 01d0 90E0      		ldi r25,hi8(CLR)
 410 01d2 60E0      		ldi r22,lo8(0)
 411 01d4 41E0      		ldi r20,lo8(1)
 412 01d6 0E94 0000 		call CopyStringtoLCD
 413               	.LM56:
 414 01da 80E0      		ldi r24,lo8(0)
 415 01dc 61E0      		ldi r22,lo8(1)
 416 01de 0E94 0000 		call LCDGotoXY
 417               	.LM57:
 418 01e2 8091 0000 		lds r24,SG+15
 419 01e6 9091 0000 		lds r25,(SG+15)+1
 420 01ea A091 0000 		lds r26,(SG+15)+2
 421 01ee B091 0000 		lds r27,(SG+15)+3
 422 01f2 00D0      		rcall .
 423 01f4 00D0      		rcall .
 424 01f6 EDB7      		in r30,__SP_L__
 425 01f8 FEB7      		in r31,__SP_H__
 426 01fa 3196      		adiw r30,1
 427 01fc 20E0      		ldi r18,lo8(.LC0)
 428 01fe 30E0      		ldi r19,hi8(.LC0)
 429 0200 CDB7      		in r28,__SP_L__
 430 0202 DEB7      		in r29,__SP_H__
 431 0204 3A83      		std Y+2,r19
 432 0206 2983      		std Y+1,r18
 433 0208 9383      		std Z+3,r25
 434 020a 8283      		std Z+2,r24
 435 020c 0E94 0000 		call printf
 436 0210 0F90      		pop __tmp_reg__
 437 0212 0F90      		pop __tmp_reg__
 438 0214 0F90      		pop __tmp_reg__
 439 0216 0F90      		pop __tmp_reg__
 440               	.L37:
 441               	.LM58:
 442 0218 8091 0000 		lds r24,SG
 443 021c 8730      		cpi r24,lo8(7)
 444 021e 01F4      		brne .L38
 445               	.LM59:
 446 0220 80E0      		ldi r24,lo8(CLR)
 447 0222 90E0      		ldi r25,hi8(CLR)
 448 0224 60E0      		ldi r22,lo8(0)
 449 0226 41E0      		ldi r20,lo8(1)
 450 0228 0E94 0000 		call CopyStringtoLCD
 451               	.LM60:
 452 022c 80E0      		ldi r24,lo8(RND)
 453 022e 90E0      		ldi r25,hi8(RND)
 454 0230 60E0      		ldi r22,lo8(0)
 455 0232 41E0      		ldi r20,lo8(1)
 456 0234 0E94 0000 		call CopyStringtoLCD
 457               	.L38:
 458               	.LM61:
 459 0238 8091 0000 		lds r24,SG
 460 023c 8830      		cpi r24,lo8(8)
 461 023e 01F4      		brne .L39
 462               	.LM62:
 463 0240 80E0      		ldi r24,lo8(CLR)
 464 0242 90E0      		ldi r25,hi8(CLR)
 465 0244 60E0      		ldi r22,lo8(0)
 466 0246 41E0      		ldi r20,lo8(1)
 467 0248 0E94 0000 		call CopyStringtoLCD
 468               	.LM63:
 469 024c 80E0      		ldi r24,lo8(0)
 470 024e 61E0      		ldi r22,lo8(1)
 471 0250 0E94 0000 		call LCDGotoXY
 472               	.LM64:
 473 0254 2091 0000 		lds r18,SG+14
 474 0258 00D0      		rcall .
 475 025a 00D0      		rcall .
 476 025c EDB7      		in r30,__SP_L__
 477 025e FEB7      		in r31,__SP_H__
 478 0260 3196      		adiw r30,1
 479 0262 80E0      		ldi r24,lo8(.LC1)
 480 0264 90E0      		ldi r25,hi8(.LC1)
 481 0266 ADB7      		in r26,__SP_L__
 482 0268 BEB7      		in r27,__SP_H__
 483 026a 1296      		adiw r26,1+1
 484 026c 9C93      		st X,r25
 485 026e 8E93      		st -X,r24
 486 0270 1197      		sbiw r26,1
 487 0272 2283      		std Z+2,r18
 488 0274 1382      		std Z+3,__zero_reg__
 489 0276 0E94 0000 		call printf
 490 027a 0F90      		pop __tmp_reg__
 491 027c 0F90      		pop __tmp_reg__
 492 027e 0F90      		pop __tmp_reg__
 493 0280 0F90      		pop __tmp_reg__
 494               	.L39:
 495               	.LM65:
 496 0282 8091 0000 		lds r24,SG
 497 0286 8823      		tst r24
 498 0288 01F0      		breq .L40
 499 028a 8091 0000 		lds r24,SG
 500 028e 8130      		cpi r24,lo8(1)
 501 0290 01F0      		breq .L40
 502 0292 8091 0000 		lds r24,SG
 503 0296 8230      		cpi r24,lo8(2)
 504 0298 01F0      		breq .L40
 505 029a 8091 0000 		lds r24,SG
 506 029e 8330      		cpi r24,lo8(3)
 507 02a0 01F0      		breq .L40
 508 02a2 8091 0000 		lds r24,SG
 509 02a6 8430      		cpi r24,lo8(4)
 510 02a8 01F0      		breq .L40
 511 02aa 8091 0000 		lds r24,SG
 512 02ae 8530      		cpi r24,lo8(5)
 513 02b0 01F4      		brne .L41
 514               	.L40:
 515               	.LM66:
 516 02b2 80E0      		ldi r24,lo8(CLR)
 517 02b4 90E0      		ldi r25,hi8(CLR)
 518 02b6 60E0      		ldi r22,lo8(0)
 519 02b8 41E0      		ldi r20,lo8(1)
 520 02ba 0E94 0000 		call CopyStringtoLCD
 521               	.LM67:
 522 02be 80E0      		ldi r24,lo8(0)
 523 02c0 61E0      		ldi r22,lo8(1)
 524 02c2 0E94 0000 		call LCDGotoXY
 525               	.LM68:
 526 02c6 8091 0000 		lds r24,SG+4
 527 02ca 9091 0000 		lds r25,(SG+4)+1
 528 02ce A091 0000 		lds r26,(SG+4)+2
 529 02d2 B091 0000 		lds r27,(SG+4)+3
 530 02d6 00D0      		rcall .
 531 02d8 00D0      		rcall .
 532 02da EDB7      		in r30,__SP_L__
 533 02dc FEB7      		in r31,__SP_H__
 534 02de 3196      		adiw r30,1
 535 02e0 20E0      		ldi r18,lo8(.LC2)
 536 02e2 30E0      		ldi r19,hi8(.LC2)
 537 02e4 CDB7      		in r28,__SP_L__
 538 02e6 DEB7      		in r29,__SP_H__
 539 02e8 3A83      		std Y+2,r19
 540 02ea 2983      		std Y+1,r18
 541 02ec 9383      		std Z+3,r25
 542 02ee 8283      		std Z+2,r24
 543 02f0 0E94 0000 		call printf
 544 02f4 0F90      		pop __tmp_reg__
 545 02f6 0F90      		pop __tmp_reg__
 546 02f8 0F90      		pop __tmp_reg__
 547 02fa 0F90      		pop __tmp_reg__
 548               	.L41:
 549               	.LM69:
 550 02fc 8091 0000 		lds r24,SG
 551 0300 8630      		cpi r24,lo8(6)
 552 0302 01F0      		breq .L44
 553               	.LM70:
 554 0304 1130      		cpi r17,lo8(1)
 555 0306 01F4      		brne .L43
 556               	.LM71:
 557 0308 80E0      		ldi r24,lo8(MNON)
 558 030a 90E0      		ldi r25,hi8(MNON)
 559 030c 00C0      		rjmp .L45
 560               	.L43:
 561               	.LM72:
 562 030e 80E0      		ldi r24,lo8(MNOFF)
 563 0310 90E0      		ldi r25,hi8(MNOFF)
 564               	.L45:
 565 0312 6DE0      		ldi r22,lo8(13)
 566 0314 41E0      		ldi r20,lo8(1)
 567 0316 0E94 0000 		call CopyStringtoLCD
 568               	.L44:
 569               	/* epilogue start */
 570               	.LM73:
 571 031a DF91      		pop r29
 572 031c CF91      		pop r28
 573 031e 1F91      		pop r17
 574               	.LVL14:
 575 0320 0895      		ret
 576               	.LFE12:
 578               	.global	Main_Init
 580               	Main_Init:
 581               	.LFB19:
 582               	.LM74:
 583 0322 EF92      		push r14
 584 0324 FF92      		push r15
 585 0326 0F93      		push r16
 586 0328 1F93      		push r17
 587               	/* prologue: function */
 588               	/* frame size = 0 */
 589               	.LM75:
 590 032a 80E0      		ldi r24,lo8(lcd_str)
 591 032c 90E0      		ldi r25,hi8(lcd_str)
 592 032e 9093 0000 		sts (__iob+2)+1,r25
 593 0332 8093 0000 		sts __iob+2,r24
 594               	.LM76:
 595 0336 0E94 0000 		call LCDinit
 596               	.LM77:
 597 033a 0E94 0000 		call LCDclr
 598               	.LM78:
 599 033e 0E94 0000 		call LCDcursorOFF
 600               	.LM79:
 601 0342 8FEF      		ldi r24,lo8(511)
 602 0344 91E0      		ldi r25,hi8(511)
 603 0346 0E94 0000 		call __eerd_byte_m16
 604 034a 8435      		cpi r24,lo8(84)
 605 034c 01F0      		breq .L47
 606               	.LM80:
 607 034e 80E0      		ldi r24,lo8(0)
 608 0350 90E0      		ldi r25,hi8(0)
 609 0352 60E0      		ldi r22,lo8(0)
 610 0354 0E94 0000 		call __eewr_byte_m16
 611               	.LM81:
 612 0358 81E0      		ldi r24,lo8(1)
 613 035a 90E0      		ldi r25,hi8(1)
 614 035c 68EE      		ldi r22,lo8(-24)
 615 035e 0E94 0000 		call __eewr_byte_m16
 616               	.LM82:
 617 0362 82E0      		ldi r24,lo8(2)
 618 0364 90E0      		ldi r25,hi8(2)
 619 0366 63E0      		ldi r22,lo8(3)
 620 0368 0E94 0000 		call __eewr_byte_m16
 621               	.LM83:
 622 036c 83E0      		ldi r24,lo8(3)
 623 036e 90E0      		ldi r25,hi8(3)
 624 0370 60E0      		ldi r22,lo8(0)
 625 0372 0E94 0000 		call __eewr_byte_m16
 626               	.LM84:
 627 0376 8FEF      		ldi r24,lo8(511)
 628 0378 91E0      		ldi r25,hi8(511)
 629 037a 64E5      		ldi r22,lo8(84)
 630 037c 0E94 0000 		call __eewr_byte_m16
 631               	.L47:
 632               	.LM85:
 633 0380 80E0      		ldi r24,lo8(0)
 634 0382 90E0      		ldi r25,hi8(0)
 635 0384 0E94 0000 		call __eerd_byte_m16
 636 0388 8093 0000 		sts SG,r24
 637               	.LM86:
 638 038c 81E0      		ldi r24,lo8(1)
 639 038e 90E0      		ldi r25,hi8(1)
 640 0390 0E94 0000 		call __eerd_byte_m16
 641 0394 8093 0000 		sts SG+1,r24
 642               	.LM87:
 643 0398 82E0      		ldi r24,lo8(2)
 644 039a 90E0      		ldi r25,hi8(2)
 645 039c 0E94 0000 		call __eerd_byte_m16
 646 03a0 8093 0000 		sts SG+2,r24
 647               	.LM88:
 648 03a4 83E0      		ldi r24,lo8(3)
 649 03a6 90E0      		ldi r25,hi8(3)
 650 03a8 0E94 0000 		call __eerd_byte_m16
 651 03ac 8093 0000 		sts SG+3,r24
 652               	.LM89:
 653 03b0 8091 0000 		lds r24,SG+3
 654 03b4 2091 0000 		lds r18,SG+2
 655 03b8 E090 0000 		lds r14,SG+1
 656 03bc 9927      		clr r25
 657 03be 87FD      		sbrc r24,7
 658 03c0 9095      		com r25
 659 03c2 A92F      		mov r26,r25
 660 03c4 B92F      		mov r27,r25
 661 03c6 DC01      		movw r26,r24
 662 03c8 9927      		clr r25
 663 03ca 8827      		clr r24
 664 03cc 30E0      		ldi r19,lo8(0)
 665 03ce 40E0      		ldi r20,lo8(0)
 666 03d0 50E0      		ldi r21,hi8(0)
 667 03d2 542F      		mov r21,r20
 668 03d4 432F      		mov r20,r19
 669 03d6 322F      		mov r19,r18
 670 03d8 2227      		clr r18
 671 03da 822B      		or r24,r18
 672 03dc 932B      		or r25,r19
 673 03de A42B      		or r26,r20
 674 03e0 B52B      		or r27,r21
 675 03e2 FF24      		clr r15
 676 03e4 00E0      		ldi r16,lo8(0)
 677 03e6 10E0      		ldi r17,hi8(0)
 678 03e8 8E29      		or r24,r14
 679 03ea 9F29      		or r25,r15
 680 03ec A02B      		or r26,r16
 681 03ee B12B      		or r27,r17
 682 03f0 8093 0000 		sts SG+4,r24
 683 03f4 9093 0000 		sts (SG+4)+1,r25
 684 03f8 A093 0000 		sts (SG+4)+2,r26
 685 03fc B093 0000 		sts (SG+4)+3,r27
 686               	.LM90:
 687 0400 6091 0000 		lds r22,SG+4
 688 0404 7091 0000 		lds r23,(SG+4)+1
 689 0408 8091 0000 		lds r24,(SG+4)+2
 690 040c 9091 0000 		lds r25,(SG+4)+3
 691 0410 0E94 0000 		call __floatunsisf
 692 0414 20E0      		ldi r18,lo8(0x3dc35000)
 693 0416 30E5      		ldi r19,hi8(0x3dc35000)
 694 0418 43EC      		ldi r20,hlo8(0x3dc35000)
 695 041a 5DE3      		ldi r21,hhi8(0x3dc35000)
 696 041c 0E94 0000 		call __divsf3
 697 0420 0E94 0000 		call __fixunssfsi
 698 0424 6093 0000 		sts SG+9,r22
 699 0428 7093 0000 		sts (SG+9)+1,r23
 700 042c 8093 0000 		sts (SG+9)+2,r24
 701 0430 9093 0000 		sts (SG+9)+3,r25
 702               	.LM91:
 703 0434 1092 0000 		sts SG+8,__zero_reg__
 704               	.LM92:
 705 0438 81E0      		ldi r24,lo8(1)
 706 043a 8093 0000 		sts SG+14,r24
 707               	.LM93:
 708 043e 84E6      		ldi r24,lo8(100)
 709 0440 90E0      		ldi r25,hi8(100)
 710 0442 A0E0      		ldi r26,hlo8(100)
 711 0444 B0E0      		ldi r27,hhi8(100)
 712 0446 8093 0000 		sts SG+15,r24
 713 044a 9093 0000 		sts (SG+15)+1,r25
 714 044e A093 0000 		sts (SG+15)+2,r26
 715 0452 B093 0000 		sts (SG+15)+3,r27
 716               	.LM94:
 717 0456 1BBA      		out 59-32,__zero_reg__
 718               	.LM95:
 719 0458 8FEF      		ldi r24,lo8(-1)
 720 045a 8ABB      		out 58-32,r24
 721               	.LM96:
 722 045c 81B3      		in r24,49-32
 723 045e 807E      		andi r24,lo8(-32)
 724 0460 81BB      		out 49-32,r24
 725               	.LM97:
 726 0462 82B3      		in r24,50-32
 727 0464 8F61      		ori r24,lo8(31)
 728 0466 82BB      		out 50-32,r24
 729               	.LM98:
 730 0468 8D9A      		sbi 49-32,5
 731               	.LM99:
 732 046a 1092 0000 		sts SG+13,__zero_reg__
 733               	.LM100:
 734 046e 8091 0000 		lds r24,SG+13
 735 0472 0E94 0000 		call Menu_Update
 736               	.LBB46:
 737               	.LBB47:
 738               	.LM101:
 739 0476 14BC      		out 68-32,__zero_reg__
 740               	.LM102:
 741               	/* #APP */
 742               	 ;  269 "main.c" 1
 743 0478 7894      		sei
 744               	 ;  0 "" 2
 745               	/* #NOAPP */
 746               	.LBE47:
 747               	.LBE46:
 748               	.LBB48:
 749               	.LBB49:
 750               	.LM103:
 751 047a 85B5      		in r24,69-32
 752 047c 8660      		ori r24,lo8(6)
 753 047e 85BD      		out 69-32,r24
 754               	.LM104:
 755 0480 89B7      		in r24,89-32
 756 0482 8064      		ori r24,lo8(64)
 757 0484 89BF      		out 89-32,r24
 758               	/* epilogue start */
 759               	.LBE49:
 760               	.LBE48:
 761               	.LM105:
 762 0486 1F91      		pop r17
 763 0488 0F91      		pop r16
 764 048a FF90      		pop r15
 765 048c EF90      		pop r14
 766 048e 0895      		ret
 767               	.LFE19:
 769               	.global	main
 771               	main:
 772               	.LFB20:
 773               	.LM106:
 774 0490 EF92      		push r14
 775 0492 FF92      		push r15
 776 0494 0F93      		push r16
 777 0496 1F93      		push r17
 778               	/* prologue: function */
 779               	/* frame size = 0 */
 780               	.LM107:
 781 0498 0E94 0000 		call Main_Init
 782               	.L61:
 783               	.LM108:
 784 049c 8091 0000 		lds r24,SG+8
 785 04a0 8130      		cpi r24,lo8(1)
 786 04a2 01F4      		brne .L61
 787               	.LM109:
 788 04a4 8BB7      		in r24,91-32
 789 04a6 8064      		ori r24,lo8(64)
 790 04a8 8BBF      		out 91-32,r24
 791               	.LM110:
 792 04aa 8091 0000 		lds r24,SG
 793 04ae 8730      		cpi r24,lo8(7)
 794 04b0 01F4      		brne .L51
 795               	.L58:
 796               	.LM111:
 797 04b2 0E94 0000 		call rand
 798 04b6 8BBB      		out 59-32,r24
 799               	.LM112:
 800 04b8 8091 0000 		lds r24,SG+8
 801 04bc 8130      		cpi r24,lo8(1)
 802 04be 01F0      		breq .L58
 803 04c0 00C0      		rjmp .L63
 804               	.L51:
 805               	.LM113:
 806 04c2 8091 0000 		lds r24,SG
 807 04c6 8830      		cpi r24,lo8(8)
 808 04c8 01F4      		brne .L53
 809               	.LM114:
 810 04ca 8091 0000 		lds r24,SG+14
 811 04ce 0E94 0000 		call Timer1_Start
 812 04d2 00C0      		rjmp .L54
 813               	.L55:
 814               	.LM115:
 815 04d4 80E0      		ldi r24,lo8(MNON)
 816 04d6 90E0      		ldi r25,hi8(MNON)
 817 04d8 6DE0      		ldi r22,lo8(13)
 818 04da 41E0      		ldi r20,lo8(1)
 819 04dc 0E94 0000 		call CopyStringtoLCD
 820               	.L54:
 821               	.LM116:
 822 04e0 8091 0000 		lds r24,SG+8
 823 04e4 8130      		cpi r24,lo8(1)
 824 04e6 01F0      		breq .L55
 825               	.LBB50:
 826               	.LBB51:
 827               	.LM117:
 828 04e8 1EBC      		out 78-32,__zero_reg__
 829               	.LBE51:
 830               	.LBE50:
 831               	.LM118:
 832 04ea 9598      		cbi 50-32,5
 833 04ec 00C0      		rjmp .L62
 834               	.L53:
 835               	.LM119:
 836 04ee E091 0000 		lds r30,SG
 837 04f2 4091 0000 		lds r20,SG+9
 838 04f6 5091 0000 		lds r21,(SG+9)+1
 839 04fa 6091 0000 		lds r22,(SG+9)+2
 840 04fe 7091 0000 		lds r23,(SG+9)+3
 841 0502 8091 0000 		lds r24,SG+9
 842 0506 9091 0000 		lds r25,(SG+9)+1
 843 050a A091 0000 		lds r26,(SG+9)+2
 844 050e B091 0000 		lds r27,(SG+9)+3
 845 0512 E090 0000 		lds r14,SG+9
 846 0516 F090 0000 		lds r15,(SG+9)+1
 847 051a 0091 0000 		lds r16,(SG+9)+2
 848 051e 1091 0000 		lds r17,(SG+9)+3
 849               	.LBB52:
 850               	.LBB53:
 851               	.LM120:
 852 0522 892F      		mov r24,r25
 853 0524 9A2F      		mov r25,r26
 854 0526 AB2F      		mov r26,r27
 855 0528 BB27      		clr r27
 856 052a AB01      		movw r20,r22
 857 052c 6627      		clr r22
 858 052e 7727      		clr r23
 859 0530 F0E0      		ldi r31,lo8(0)
 860 0532 EE0F      		lsl r30
 861 0534 FF1F      		rol r31
 862 0536 E050      		subi r30,lo8(-(SIGNALS))
 863 0538 F040      		sbci r31,hi8(-(SIGNALS))
 864 053a 0190      		ld __tmp_reg__,Z+
 865 053c F081      		ld r31,Z
 866 053e E02D      		mov r30,__tmp_reg__
 867               	/* #APP */
 868               	 ;  516 "main.c" 1
 869 0540 2227      		eor r18, r18 	;r18<-0
 870 0542 3327      		eor r19, r19 	;r19<-0
 871               		1:
 872 0544 2E0D      		add r18, r14	;1 cycle
 873 0546 381F      		adc r19, r24	;1 cycle
 874 0548 E41F      		adc r30, r20	;1 cycle
 875 054a C895      		lpm 			;3 cycles
 876 054c 0BBA      		out 27, __tmp_reg__	;1 cycle
 877 054e 6A9B      		sbis 13, 2		;1 cycle if no skip
 878 0550 00C0      		rjmp 1b		;2 cycles. Total 10 cycles
 879               		
 880               	 ;  0 "" 2
 881               	/* #NOAPP */
 882               	.L63:
 883               	.LBE53:
 884               	.LBE52:
 885               	.LM121:
 886 0552 1BBA      		out 59-32,__zero_reg__
 887               	.L62:
 888               	.LM122:
 889 0554 8091 0000 		lds r24,SG+13
 890 0558 0E94 0000 		call Menu_Update
 891               	.LM123:
 892 055c 8BB7      		in r24,91-32
 893 055e 8F7B      		andi r24,lo8(-65)
 894 0560 8BBF      		out 91-32,r24
 895               	.LBB54:
 896               	.LBB55:
 897               	.LM124:
 898 0562 85B5      		in r24,69-32
 899 0564 8660      		ori r24,lo8(6)
 900 0566 85BD      		out 69-32,r24
 901               	.LM125:
 902 0568 89B7      		in r24,89-32
 903 056a 8064      		ori r24,lo8(64)
 904 056c 89BF      		out 89-32,r24
 905 056e 00C0      		rjmp .L61
 906               	.LBE55:
 907               	.LBE54:
 908               	.LFE20:
 910               	.global	__vector_4
 912               	__vector_4:
 913               	.LFB15:
 914               	.LM126:
 915 0570 1F92      		push __zero_reg__
 916 0572 0F92      		push r0
 917 0574 0FB6      		in r0,__SREG__
 918 0576 0F92      		push r0
 919 0578 1124      		clr __zero_reg__
 920 057a AF92      		push r10
 921 057c BF92      		push r11
 922 057e CF92      		push r12
 923 0580 DF92      		push r13
 924 0582 EF92      		push r14
 925 0584 FF92      		push r15
 926 0586 0F93      		push r16
 927 0588 1F93      		push r17
 928 058a 2F93      		push r18
 929 058c 3F93      		push r19
 930 058e 4F93      		push r20
 931 0590 5F93      		push r21
 932 0592 6F93      		push r22
 933 0594 7F93      		push r23
 934 0596 8F93      		push r24
 935 0598 9F93      		push r25
 936 059a AF93      		push r26
 937 059c BF93      		push r27
 938 059e EF93      		push r30
 939 05a0 FF93      		push r31
 940               	/* prologue: Signal */
 941               	/* frame size = 0 */
 942               	.LM127:
 943 05a2 8499      		sbic 48-32,4
 944 05a4 00C0      		rjmp .L65
 945               	.LM128:
 946 05a6 8091 0000 		lds r24,SG
 947 05aa 8823      		tst r24
 948 05ac 01F4      		brne .L66
 949               	.LM129:
 950 05ae 88E0      		ldi r24,lo8(8)
 951 05b0 00C0      		rjmp .L124
 952               	.L66:
 953               	.LM130:
 954 05b2 8091 0000 		lds r24,SG
 955 05b6 8150      		subi r24,lo8(-(-1))
 956               	.L124:
 957 05b8 8093 0000 		sts SG,r24
 958               	.LM131:
 959 05bc 8091 0000 		lds r24,SG+13
 960 05c0 0E94 0000 		call Menu_Update
 961               	.L68:
 962               	.LM132:
 963 05c4 849B      		sbis 48-32,4
 964 05c6 00C0      		rjmp .L68
 965               	.L65:
 966               	.LM133:
 967 05c8 8099      		sbic 48-32,0
 968 05ca 00C0      		rjmp .L69
 969               	.LM134:
 970 05cc 8091 0000 		lds r24,SG
 971 05d0 8830      		cpi r24,lo8(8)
 972 05d2 00F4      		brsh .L70
 973               	.LM135:
 974 05d4 8091 0000 		lds r24,SG
 975 05d8 8F5F      		subi r24,lo8(-(1))
 976 05da 8093 0000 		sts SG,r24
 977 05de 00C0      		rjmp .L71
 978               	.L70:
 979               	.LM136:
 980 05e0 1092 0000 		sts SG,__zero_reg__
 981               	.L71:
 982               	.LM137:
 983 05e4 8091 0000 		lds r24,SG+13
 984 05e8 0E94 0000 		call Menu_Update
 985               	.L72:
 986               	.LM138:
 987 05ec 809B      		sbis 48-32,0
 988 05ee 00C0      		rjmp .L72
 989               	.L69:
 990               	.LM139:
 991 05f0 8399      		sbic 48-32,3
 992 05f2 00C0      		rjmp .L73
 993               	.LM140:
 994 05f4 8091 0000 		lds r24,SG
 995 05f8 8630      		cpi r24,lo8(6)
 996 05fa 01F4      		brne .L74
 997               	.LM141:
 998 05fc 8091 0000 		lds r24,SG+15
 999 0600 9091 0000 		lds r25,(SG+15)+1
 1000 0604 A091 0000 		lds r26,(SG+15)+2
 1001 0608 B091 0000 		lds r27,(SG+15)+3
 1002 060c 8051      		subi r24,lo8(10000)
 1003 060e 9742      		sbci r25,hi8(10000)
 1004 0610 A040      		sbci r26,hlo8(10000)
 1005 0612 B040      		sbci r27,hhi8(10000)
 1006 0614 01F4      		brne .L75
 1007               	.LM142:
 1008 0616 81E0      		ldi r24,lo8(1)
 1009 0618 90E0      		ldi r25,hi8(1)
 1010 061a A0E0      		ldi r26,hlo8(1)
 1011 061c B0E0      		ldi r27,hhi8(1)
 1012 061e 8093 0000 		sts SG+15,r24
 1013 0622 9093 0000 		sts (SG+15)+1,r25
 1014 0626 A093 0000 		sts (SG+15)+2,r26
 1015 062a B093 0000 		sts (SG+15)+3,r27
 1016 062e 00C0      		rjmp .L76
 1017               	.L75:
 1018               	.LM143:
 1019 0630 6091 0000 		lds r22,SG+15
 1020 0634 7091 0000 		lds r23,(SG+15)+1
 1021 0638 8091 0000 		lds r24,(SG+15)+2
 1022 063c 9091 0000 		lds r25,(SG+15)+3
 1023 0640 2AE0      		ldi r18,lo8(10)
 1024 0642 30E0      		ldi r19,hi8(10)
 1025 0644 40E0      		ldi r20,hlo8(10)
 1026 0646 50E0      		ldi r21,hhi8(10)
 1027 0648 0E94 0000 		call __mulsi3
 1028 064c 6093 0000 		sts SG+15,r22
 1029 0650 7093 0000 		sts (SG+15)+1,r23
 1030 0654 8093 0000 		sts (SG+15)+2,r24
 1031 0658 9093 0000 		sts (SG+15)+3,r25
 1032               	.L76:
 1033               	.LM144:
 1034 065c 0E94 0000 		call Freq_Update
 1035               	.L77:
 1036               	.LM145:
 1037 0660 839B      		sbis 48-32,3
 1038 0662 00C0      		rjmp .L77
 1039               	.L74:
 1040               	.LM146:
 1041 0664 8091 0000 		lds r24,SG
 1042 0668 8830      		cpi r24,lo8(8)
 1043 066a 01F4      		brne .L78
 1044               	.LM147:
 1045 066c 8091 0000 		lds r24,SG+14
 1046 0670 8830      		cpi r24,lo8(8)
 1047 0672 01F4      		brne .L79
 1048               	.LM148:
 1049 0674 81E0      		ldi r24,lo8(1)
 1050 0676 00C0      		rjmp .L125
 1051               	.L79:
 1052               	.LM149:
 1053 0678 8091 0000 		lds r24,SG+14
 1054 067c 880F      		lsl r24
 1055               	.L125:
 1056 067e 8093 0000 		sts SG+14,r24
 1057               	.LM150:
 1058 0682 0E94 0000 		call Freq_Update
 1059               	.L81:
 1060               	.LM151:
 1061 0686 839B      		sbis 48-32,3
 1062 0688 00C0      		rjmp .L81
 1063               	.L78:
 1064               	.LM152:
 1065 068a 8091 0000 		lds r24,SG
 1066 068e 8823      		tst r24
 1067 0690 01F0      		breq .L82
 1068 0692 8091 0000 		lds r24,SG
 1069 0696 8130      		cpi r24,lo8(1)
 1070 0698 01F0      		breq .L82
 1071 069a 8091 0000 		lds r24,SG
 1072 069e 8230      		cpi r24,lo8(2)
 1073 06a0 01F0      		breq .L82
 1074 06a2 8091 0000 		lds r24,SG
 1075 06a6 8330      		cpi r24,lo8(3)
 1076 06a8 01F0      		breq .L82
 1077 06aa 8091 0000 		lds r24,SG
 1078 06ae 8430      		cpi r24,lo8(4)
 1079 06b0 01F0      		breq .L82
 1080 06b2 8091 0000 		lds r24,SG
 1081 06b6 8530      		cpi r24,lo8(5)
 1082 06b8 01F0      		breq .+2
 1083 06ba 00C0      		rjmp .L73
 1084               	.L82:
 1085               	.LBB56:
 1086               	.LM153:
 1087 06bc 8091 0000 		lds r24,SG+4
 1088 06c0 9091 0000 		lds r25,(SG+4)+1
 1089 06c4 A091 0000 		lds r26,(SG+4)+2
 1090 06c8 B091 0000 		lds r27,(SG+4)+3
 1091 06cc E090 0000 		lds r14,SG+15
 1092 06d0 F090 0000 		lds r15,(SG+15)+1
 1093 06d4 0091 0000 		lds r16,(SG+15)+2
 1094 06d8 1091 0000 		lds r17,(SG+15)+3
 1095 06dc 2FEF      		ldi r18,lo8(65535)
 1096 06de 3FEF      		ldi r19,hi8(65535)
 1097 06e0 40E0      		ldi r20,hlo8(65535)
 1098 06e2 50E0      		ldi r21,hhi8(65535)
 1099 06e4 281B      		sub r18,r24
 1100 06e6 390B      		sbc r19,r25
 1101 06e8 4A0B      		sbc r20,r26
 1102 06ea 5B0B      		sbc r21,r27
 1103 06ec 2E15      		cp r18,r14
 1104 06ee 3F05      		cpc r19,r15
 1105 06f0 4007      		cpc r20,r16
 1106 06f2 5107      		cpc r21,r17
 1107 06f4 00F0      		brlo .L83
 1108               	.LM154:
 1109 06f6 2091 0000 		lds r18,SG+4
 1110 06fa 3091 0000 		lds r19,(SG+4)+1
 1111 06fe 4091 0000 		lds r20,(SG+4)+2
 1112 0702 5091 0000 		lds r21,(SG+4)+3
 1113 0706 8091 0000 		lds r24,SG+15
 1114 070a 9091 0000 		lds r25,(SG+15)+1
 1115 070e A091 0000 		lds r26,(SG+15)+2
 1116 0712 B091 0000 		lds r27,(SG+15)+3
 1117 0716 820F      		add r24,r18
 1118 0718 931F      		adc r25,r19
 1119 071a A41F      		adc r26,r20
 1120 071c B51F      		adc r27,r21
 1121 071e 8093 0000 		sts SG+4,r24
 1122 0722 9093 0000 		sts (SG+4)+1,r25
 1123 0726 A093 0000 		sts (SG+4)+2,r26
 1124 072a B093 0000 		sts (SG+4)+3,r27
 1125               	.L83:
 1126               	.LM155:
 1127 072e 0E94 0000 		call Freq_Update
 1128 0732 20E0      		ldi r18,lo8(0)
 1129               	.LVL15:
 1130               	.LBB57:
 1131               	.LBB58:
 1132               	.LBB59:
 1133               	.LBB60:
 1134               	.LM156:
 1135 0734 40E4      		ldi r20,lo8(8000)
 1136 0736 5FE1      		ldi r21,hi8(8000)
 1137               	.LVL16:
 1138               	.L86:
 1139 0738 CA01      		movw r24,r20
 1140               	/* #APP */
 1141               	 ;  105 "c:/winavr/lib/gcc/../../avr/include/util/delay_basic.h" 1
 1142 073a 0197      		1: sbiw r24,1
 1143 073c 01F4      		brne 1b
 1144               	 ;  0 "" 2
 1145               	/* #NOAPP */
 1146               	.LBE60:
 1147               	.LBE59:
 1148               	.LBE58:
 1149               	.LBE57:
 1150               	.LM157:
 1151 073e 2F5F      		subi r18,lo8(-(1))
 1152               	.LM158:
 1153 0740 839B      		sbis 48-32,3
 1154 0742 00C0      		rjmp .L84
 1155               	.LM159:
 1156 0744 2A3F      		cpi r18,lo8(-6)
 1157 0746 00F4      		brsh .+2
 1158 0748 00C0      		rjmp .L73
 1159 074a 00C0      		rjmp .L85
 1160               	.L84:
 1161               	.LM160:
 1162 074c 2B3F      		cpi r18,lo8(-5)
 1163 074e 01F4      		brne .L86
 1164               	.L85:
 1165               	.LM161:
 1166 0750 6FEF      		ldi r22,lo8(65535)
 1167 0752 E62E      		mov r14,r22
 1168 0754 6FEF      		ldi r22,hi8(65535)
 1169 0756 F62E      		mov r15,r22
 1170 0758 012D      		mov r16,__zero_reg__
 1171 075a 112D      		mov r17,__zero_reg__
 1172               	.L112:
 1173 075c 8091 0000 		lds r24,SG+4
 1174 0760 9091 0000 		lds r25,(SG+4)+1
 1175 0764 A091 0000 		lds r26,(SG+4)+2
 1176 0768 B091 0000 		lds r27,(SG+4)+3
 1177               	.LVL17:
 1178 076c 2091 0000 		lds r18,SG+15
 1179 0770 3091 0000 		lds r19,(SG+15)+1
 1180 0774 4091 0000 		lds r20,(SG+15)+2
 1181 0778 5091 0000 		lds r21,(SG+15)+3
 1182               	.LVL18:
 1183 077c 5701      		movw r10,r14
 1184 077e 6801      		movw r12,r16
 1185 0780 A81A      		sub r10,r24
 1186 0782 B90A      		sbc r11,r25
 1187 0784 CA0A      		sbc r12,r26
 1188 0786 DB0A      		sbc r13,r27
 1189 0788 A216      		cp r10,r18
 1190 078a B306      		cpc r11,r19
 1191 078c C406      		cpc r12,r20
 1192 078e D506      		cpc r13,r21
 1193 0790 00F0      		brlo .L87
 1194               	.LM162:
 1195 0792 2091 0000 		lds r18,SG+4
 1196 0796 3091 0000 		lds r19,(SG+4)+1
 1197 079a 4091 0000 		lds r20,(SG+4)+2
 1198 079e 5091 0000 		lds r21,(SG+4)+3
 1199 07a2 8091 0000 		lds r24,SG+15
 1200 07a6 9091 0000 		lds r25,(SG+15)+1
 1201 07aa A091 0000 		lds r26,(SG+15)+2
 1202 07ae B091 0000 		lds r27,(SG+15)+3
 1203 07b2 820F      		add r24,r18
 1204 07b4 931F      		adc r25,r19
 1205 07b6 A41F      		adc r26,r20
 1206 07b8 B51F      		adc r27,r21
 1207 07ba 8093 0000 		sts SG+4,r24
 1208 07be 9093 0000 		sts (SG+4)+1,r25
 1209 07c2 A093 0000 		sts (SG+4)+2,r26
 1210 07c6 B093 0000 		sts (SG+4)+3,r27
 1211               	.L87:
 1212               	.LM163:
 1213 07ca 0E94 0000 		call Freq_Update
 1214               	.LM164:
 1215 07ce 839B      		sbis 48-32,3
 1216 07d0 00C0      		rjmp .L112
 1217               	.LVL19:
 1218               	.L73:
 1219               	.LBE56:
 1220               	.LM165:
 1221 07d2 8199      		sbic 48-32,1
 1222 07d4 00C0      		rjmp .L88
 1223               	.LM166:
 1224 07d6 8091 0000 		lds r24,SG
 1225               	.LVL20:
 1226 07da 8630      		cpi r24,lo8(6)
 1227 07dc 01F4      		brne .L89
 1228               	.LM167:
 1229 07de 8091 0000 		lds r24,SG+15
 1230 07e2 9091 0000 		lds r25,(SG+15)+1
 1231 07e6 A091 0000 		lds r26,(SG+15)+2
 1232 07ea B091 0000 		lds r27,(SG+15)+3
 1233 07ee 0197      		sbiw r24,1
 1234 07f0 A105      		cpc r26,__zero_reg__
 1235 07f2 B105      		cpc r27,__zero_reg__
 1236 07f4 01F4      		brne .L90
 1237               	.LM168:
 1238 07f6 80E1      		ldi r24,lo8(10000)
 1239 07f8 97E2      		ldi r25,hi8(10000)
 1240 07fa A0E0      		ldi r26,hlo8(10000)
 1241 07fc B0E0      		ldi r27,hhi8(10000)
 1242 07fe 00C0      		rjmp .L126
 1243               	.L90:
 1244               	.LM169:
 1245 0800 6091 0000 		lds r22,SG+15
 1246 0804 7091 0000 		lds r23,(SG+15)+1
 1247 0808 8091 0000 		lds r24,(SG+15)+2
 1248 080c 9091 0000 		lds r25,(SG+15)+3
 1249 0810 2AE0      		ldi r18,lo8(10)
 1250 0812 30E0      		ldi r19,hi8(10)
 1251 0814 40E0      		ldi r20,hlo8(10)
 1252 0816 50E0      		ldi r21,hhi8(10)
 1253               	.LVL21:
 1254 0818 0E94 0000 		call __udivmodsi4
 1255 081c C901      		movw r24,r18
 1256 081e DA01      		movw r26,r20
 1257               	.LVL22:
 1258               	.L126:
 1259 0820 8093 0000 		sts SG+15,r24
 1260 0824 9093 0000 		sts (SG+15)+1,r25
 1261 0828 A093 0000 		sts (SG+15)+2,r26
 1262 082c B093 0000 		sts (SG+15)+3,r27
 1263               	.LM170:
 1264 0830 0E94 0000 		call Freq_Update
 1265               	.LVL23:
 1266               	.L92:
 1267               	.LM171:
 1268 0834 819B      		sbis 48-32,1
 1269 0836 00C0      		rjmp .L92
 1270               	.LVL24:
 1271               	.L89:
 1272               	.LM172:
 1273 0838 9091 0000 		lds r25,SG
 1274 083c 9830      		cpi r25,lo8(8)
 1275 083e 01F4      		brne .L93
 1276               	.LM173:
 1277 0840 8091 0000 		lds r24,SG+14
 1278 0844 8130      		cpi r24,lo8(1)
 1279 0846 01F4      		brne .L94
 1280               	.LM174:
 1281 0848 9093 0000 		sts SG+14,r25
 1282 084c 00C0      		rjmp .L95
 1283               	.L94:
 1284               	.LM175:
 1285 084e 8091 0000 		lds r24,SG+14
 1286 0852 8695      		lsr r24
 1287 0854 8093 0000 		sts SG+14,r24
 1288               	.L95:
 1289               	.LM176:
 1290 0858 0E94 0000 		call Freq_Update
 1291               	.LVL25:
 1292               	.L96:
 1293               	.LM177:
 1294 085c 819B      		sbis 48-32,1
 1295 085e 00C0      		rjmp .L96
 1296               	.LVL26:
 1297               	.L93:
 1298               	.LM178:
 1299 0860 8091 0000 		lds r24,SG
 1300 0864 8823      		tst r24
 1301 0866 01F0      		breq .L97
 1302 0868 8091 0000 		lds r24,SG
 1303 086c 8130      		cpi r24,lo8(1)
 1304 086e 01F0      		breq .L97
 1305 0870 8091 0000 		lds r24,SG
 1306 0874 8230      		cpi r24,lo8(2)
 1307 0876 01F0      		breq .L97
 1308 0878 8091 0000 		lds r24,SG
 1309 087c 8330      		cpi r24,lo8(3)
 1310 087e 01F0      		breq .L97
 1311 0880 8091 0000 		lds r24,SG
 1312 0884 8430      		cpi r24,lo8(4)
 1313 0886 01F0      		breq .L97
 1314 0888 8091 0000 		lds r24,SG
 1315 088c 8530      		cpi r24,lo8(5)
 1316 088e 01F0      		breq .+2
 1317 0890 00C0      		rjmp .L88
 1318               	.L97:
 1319               	.LBB61:
 1320               	.LM179:
 1321 0892 2091 0000 		lds r18,SG+4
 1322 0896 3091 0000 		lds r19,(SG+4)+1
 1323 089a 4091 0000 		lds r20,(SG+4)+2
 1324 089e 5091 0000 		lds r21,(SG+4)+3
 1325               	.LVL27:
 1326 08a2 8091 0000 		lds r24,SG+15
 1327 08a6 9091 0000 		lds r25,(SG+15)+1
 1328 08aa A091 0000 		lds r26,(SG+15)+2
 1329 08ae B091 0000 		lds r27,(SG+15)+3
 1330 08b2 2817      		cp r18,r24
 1331 08b4 3907      		cpc r19,r25
 1332 08b6 4A07      		cpc r20,r26
 1333 08b8 5B07      		cpc r21,r27
 1334 08ba 00F0      		brlo .L98
 1335               	.LM180:
 1336 08bc 8091 0000 		lds r24,SG+4
 1337 08c0 9091 0000 		lds r25,(SG+4)+1
 1338 08c4 A091 0000 		lds r26,(SG+4)+2
 1339 08c8 B091 0000 		lds r27,(SG+4)+3
 1340 08cc 2091 0000 		lds r18,SG+15
 1341 08d0 3091 0000 		lds r19,(SG+15)+1
 1342 08d4 4091 0000 		lds r20,(SG+15)+2
 1343 08d8 5091 0000 		lds r21,(SG+15)+3
 1344 08dc 821B      		sub r24,r18
 1345 08de 930B      		sbc r25,r19
 1346 08e0 A40B      		sbc r26,r20
 1347 08e2 B50B      		sbc r27,r21
 1348 08e4 8093 0000 		sts SG+4,r24
 1349 08e8 9093 0000 		sts (SG+4)+1,r25
 1350 08ec A093 0000 		sts (SG+4)+2,r26
 1351 08f0 B093 0000 		sts (SG+4)+3,r27
 1352               	.L98:
 1353               	.LM181:
 1354 08f4 0E94 0000 		call Freq_Update
 1355 08f8 20E0      		ldi r18,lo8(0)
 1356               	.LVL28:
 1357               	.LBB62:
 1358               	.LBB63:
 1359               	.LBB64:
 1360               	.LBB65:
 1361               	.LM182:
 1362 08fa 40E4      		ldi r20,lo8(8000)
 1363 08fc 5FE1      		ldi r21,hi8(8000)
 1364               	.LVL29:
 1365               	.L101:
 1366 08fe CA01      		movw r24,r20
 1367               	/* #APP */
 1368               	 ;  105 "c:/winavr/lib/gcc/../../avr/include/util/delay_basic.h" 1
 1369 0900 0197      		1: sbiw r24,1
 1370 0902 01F4      		brne 1b
 1371               	 ;  0 "" 2
 1372               	/* #NOAPP */
 1373               	.LBE65:
 1374               	.LBE64:
 1375               	.LBE63:
 1376               	.LBE62:
 1377               	.LM183:
 1378 0904 2F5F      		subi r18,lo8(-(1))
 1379               	.LM184:
 1380 0906 819B      		sbis 48-32,1
 1381 0908 00C0      		rjmp .L99
 1382               	.LM185:
 1383 090a 2A3F      		cpi r18,lo8(-6)
 1384 090c 00F0      		brlo .L88
 1385 090e 00C0      		rjmp .L111
 1386               	.L99:
 1387               	.LM186:
 1388 0910 2B3F      		cpi r18,lo8(-5)
 1389 0912 01F4      		brne .L101
 1390               	.L111:
 1391               	.LM187:
 1392 0914 2091 0000 		lds r18,SG+4
 1393 0918 3091 0000 		lds r19,(SG+4)+1
 1394 091c 4091 0000 		lds r20,(SG+4)+2
 1395 0920 5091 0000 		lds r21,(SG+4)+3
 1396               	.LVL30:
 1397 0924 8091 0000 		lds r24,SG+15
 1398 0928 9091 0000 		lds r25,(SG+15)+1
 1399 092c A091 0000 		lds r26,(SG+15)+2
 1400 0930 B091 0000 		lds r27,(SG+15)+3
 1401               	.LVL31:
 1402 0934 2817      		cp r18,r24
 1403 0936 3907      		cpc r19,r25
 1404 0938 4A07      		cpc r20,r26
 1405 093a 5B07      		cpc r21,r27
 1406 093c 00F0      		brlo .L102
 1407               	.LM188:
 1408 093e 8091 0000 		lds r24,SG+4
 1409 0942 9091 0000 		lds r25,(SG+4)+1
 1410 0946 A091 0000 		lds r26,(SG+4)+2
 1411 094a B091 0000 		lds r27,(SG+4)+3
 1412 094e 2091 0000 		lds r18,SG+15
 1413 0952 3091 0000 		lds r19,(SG+15)+1
 1414 0956 4091 0000 		lds r20,(SG+15)+2
 1415 095a 5091 0000 		lds r21,(SG+15)+3
 1416 095e 821B      		sub r24,r18
 1417 0960 930B      		sbc r25,r19
 1418 0962 A40B      		sbc r26,r20
 1419 0964 B50B      		sbc r27,r21
 1420 0966 8093 0000 		sts SG+4,r24
 1421 096a 9093 0000 		sts (SG+4)+1,r25
 1422 096e A093 0000 		sts (SG+4)+2,r26
 1423 0972 B093 0000 		sts (SG+4)+3,r27
 1424               	.L102:
 1425               	.LM189:
 1426 0976 0E94 0000 		call Freq_Update
 1427               	.LM190:
 1428 097a 819B      		sbis 48-32,1
 1429 097c 00C0      		rjmp .L111
 1430               	.LVL32:
 1431               	.L88:
 1432               	.LBE61:
 1433               	.LM191:
 1434 097e 8299      		sbic 48-32,2
 1435 0980 00C0      		rjmp .L109
 1436               	.LM192:
 1437 0982 8091 0000 		lds r24,SG
 1438               	.LVL33:
 1439 0986 8630      		cpi r24,lo8(6)
 1440 0988 01F4      		brne .+2
 1441 098a 00C0      		rjmp .L110
 1442               	.LM193:
 1443 098c 8091 0000 		lds r24,SG+4
 1444 0990 9091 0000 		lds r25,(SG+4)+1
 1445 0994 A091 0000 		lds r26,(SG+4)+2
 1446 0998 B091 0000 		lds r27,(SG+4)+3
 1447 099c 8093 0000 		sts SG+1,r24
 1448               	.LM194:
 1449 09a0 8091 0000 		lds r24,SG+4
 1450 09a4 9091 0000 		lds r25,(SG+4)+1
 1451 09a8 A091 0000 		lds r26,(SG+4)+2
 1452 09ac B091 0000 		lds r27,(SG+4)+3
 1453 09b0 892F      		mov r24,r25
 1454 09b2 9A2F      		mov r25,r26
 1455 09b4 AB2F      		mov r26,r27
 1456 09b6 BB27      		clr r27
 1457 09b8 8093 0000 		sts SG+2,r24
 1458               	.LM195:
 1459 09bc 8091 0000 		lds r24,SG+4
 1460 09c0 9091 0000 		lds r25,(SG+4)+1
 1461 09c4 A091 0000 		lds r26,(SG+4)+2
 1462 09c8 B091 0000 		lds r27,(SG+4)+3
 1463 09cc CD01      		movw r24,r26
 1464 09ce AA27      		clr r26
 1465 09d0 BB27      		clr r27
 1466 09d2 8093 0000 		sts SG+3,r24
 1467               	.LM196:
 1468 09d6 80E0      		ldi r24,lo8(0)
 1469 09d8 90E0      		ldi r25,hi8(0)
 1470 09da 0E94 0000 		call __eerd_byte_m16
 1471               	.LVL34:
 1472 09de 9091 0000 		lds r25,SG
 1473 09e2 8917      		cp r24,r25
 1474 09e4 01F0      		breq .L105
 1475 09e6 6091 0000 		lds r22,SG
 1476 09ea 80E0      		ldi r24,lo8(0)
 1477 09ec 90E0      		ldi r25,hi8(0)
 1478 09ee 0E94 0000 		call __eewr_byte_m16
 1479               	.L105:
 1480               	.LM197:
 1481 09f2 81E0      		ldi r24,lo8(1)
 1482 09f4 90E0      		ldi r25,hi8(1)
 1483 09f6 0E94 0000 		call __eerd_byte_m16
 1484 09fa 9091 0000 		lds r25,SG+1
 1485 09fe 8917      		cp r24,r25
 1486 0a00 01F0      		breq .L106
 1487 0a02 6091 0000 		lds r22,SG+1
 1488 0a06 81E0      		ldi r24,lo8(1)
 1489 0a08 90E0      		ldi r25,hi8(1)
 1490 0a0a 0E94 0000 		call __eewr_byte_m16
 1491               	.L106:
 1492               	.LM198:
 1493 0a0e 82E0      		ldi r24,lo8(2)
 1494 0a10 90E0      		ldi r25,hi8(2)
 1495 0a12 0E94 0000 		call __eerd_byte_m16
 1496 0a16 9091 0000 		lds r25,SG+2
 1497 0a1a 8917      		cp r24,r25
 1498 0a1c 01F0      		breq .L107
 1499 0a1e 6091 0000 		lds r22,SG+2
 1500 0a22 82E0      		ldi r24,lo8(2)
 1501 0a24 90E0      		ldi r25,hi8(2)
 1502 0a26 0E94 0000 		call __eewr_byte_m16
 1503               	.L107:
 1504               	.LM199:
 1505 0a2a 83E0      		ldi r24,lo8(3)
 1506 0a2c 90E0      		ldi r25,hi8(3)
 1507 0a2e 0E94 0000 		call __eerd_byte_m16
 1508 0a32 2091 0000 		lds r18,SG+3
 1509 0a36 90E0      		ldi r25,lo8(0)
 1510 0a38 3327      		clr r19
 1511 0a3a 27FD      		sbrc r18,7
 1512 0a3c 3095      		com r19
 1513 0a3e 8217      		cp r24,r18
 1514 0a40 9307      		cpc r25,r19
 1515 0a42 01F0      		breq .L108
 1516 0a44 6091 0000 		lds r22,SG+3
 1517 0a48 83E0      		ldi r24,lo8(3)
 1518 0a4a 90E0      		ldi r25,hi8(3)
 1519 0a4c 0E94 0000 		call __eewr_byte_m16
 1520               	.L108:
 1521               	.LM200:
 1522 0a50 8091 0000 		lds r24,SG+3
 1523 0a54 2091 0000 		lds r18,SG+2
 1524 0a58 E090 0000 		lds r14,SG+1
 1525 0a5c 9927      		clr r25
 1526 0a5e 87FD      		sbrc r24,7
 1527 0a60 9095      		com r25
 1528 0a62 A92F      		mov r26,r25
 1529 0a64 B92F      		mov r27,r25
 1530 0a66 DC01      		movw r26,r24
 1531 0a68 9927      		clr r25
 1532 0a6a 8827      		clr r24
 1533 0a6c 30E0      		ldi r19,lo8(0)
 1534 0a6e 40E0      		ldi r20,lo8(0)
 1535 0a70 50E0      		ldi r21,hi8(0)
 1536 0a72 542F      		mov r21,r20
 1537 0a74 432F      		mov r20,r19
 1538 0a76 322F      		mov r19,r18
 1539 0a78 2227      		clr r18
 1540 0a7a 822B      		or r24,r18
 1541 0a7c 932B      		or r25,r19
 1542 0a7e A42B      		or r26,r20
 1543 0a80 B52B      		or r27,r21
 1544 0a82 FF24      		clr r15
 1545 0a84 00E0      		ldi r16,lo8(0)
 1546 0a86 10E0      		ldi r17,hi8(0)
 1547 0a88 8E29      		or r24,r14
 1548 0a8a 9F29      		or r25,r15
 1549 0a8c A02B      		or r26,r16
 1550 0a8e B12B      		or r27,r17
 1551 0a90 8093 0000 		sts SG+4,r24
 1552 0a94 9093 0000 		sts (SG+4)+1,r25
 1553 0a98 A093 0000 		sts (SG+4)+2,r26
 1554 0a9c B093 0000 		sts (SG+4)+3,r27
 1555               	.LM201:
 1556 0aa0 6091 0000 		lds r22,SG+4
 1557 0aa4 7091 0000 		lds r23,(SG+4)+1
 1558 0aa8 8091 0000 		lds r24,(SG+4)+2
 1559 0aac 9091 0000 		lds r25,(SG+4)+3
 1560 0ab0 0E94 0000 		call __floatunsisf
 1561 0ab4 20E0      		ldi r18,lo8(0x3dc35000)
 1562 0ab6 30E5      		ldi r19,hi8(0x3dc35000)
 1563 0ab8 43EC      		ldi r20,hlo8(0x3dc35000)
 1564 0aba 5DE3      		ldi r21,hhi8(0x3dc35000)
 1565 0abc 0E94 0000 		call __divsf3
 1566 0ac0 0E94 0000 		call __fixunssfsi
 1567 0ac4 6093 0000 		sts SG+9,r22
 1568 0ac8 7093 0000 		sts (SG+9)+1,r23
 1569 0acc 8093 0000 		sts (SG+9)+2,r24
 1570 0ad0 9093 0000 		sts (SG+9)+3,r25
 1571               	.LM202:
 1572 0ad4 81E0      		ldi r24,lo8(1)
 1573 0ad6 8093 0000 		sts SG+8,r24
 1574               	.LM203:
 1575 0ada 8093 0000 		sts SG+13,r24
 1576               	.LM204:
 1577 0ade 6A98      		cbi 45-32,2
 1578               	.LBB66:
 1579               	.LBB67:
 1580               	.LM205:
 1581 0ae0 83B7      		in r24,83-32
 1582 0ae2 897F      		andi r24,lo8(-7)
 1583 0ae4 83BF      		out 83-32,r24
 1584               	.LM206:
 1585 0ae6 89B7      		in r24,89-32
 1586 0ae8 8F7B      		andi r24,lo8(-65)
 1587 0aea 89BF      		out 89-32,r24
 1588               	.LBE67:
 1589               	.LBE66:
 1590               	.LM207:
 1591 0aec 8091 0000 		lds r24,SG+13
 1592 0af0 0E94 0000 		call Menu_Update
 1593               	.LVL35:
 1594               	.L110:
 1595               	.LM208:
 1596 0af4 829B      		sbis 48-32,2
 1597 0af6 00C0      		rjmp .L110
 1598               	.LVL36:
 1599               	.L109:
 1600               	/* epilogue start */
 1601               	.LM209:
 1602 0af8 FF91      		pop r31
 1603 0afa EF91      		pop r30
 1604 0afc BF91      		pop r27
 1605 0afe AF91      		pop r26
 1606 0b00 9F91      		pop r25
 1607 0b02 8F91      		pop r24
 1608               	.LVL37:
 1609 0b04 7F91      		pop r23
 1610 0b06 6F91      		pop r22
 1611 0b08 5F91      		pop r21
 1612 0b0a 4F91      		pop r20
 1613 0b0c 3F91      		pop r19
 1614 0b0e 2F91      		pop r18
 1615               	.LVL38:
 1616 0b10 1F91      		pop r17
 1617 0b12 0F91      		pop r16
 1618 0b14 FF90      		pop r15
 1619 0b16 EF90      		pop r14
 1620 0b18 DF90      		pop r13
 1621 0b1a CF90      		pop r12
 1622 0b1c BF90      		pop r11
 1623 0b1e AF90      		pop r10
 1624 0b20 0F90      		pop r0
 1625 0b22 0FBE      		out __SREG__,r0
 1626 0b24 0F90      		pop r0
 1627 0b26 1F90      		pop __zero_reg__
 1628 0b28 1895      		reti
 1629               	.LFE15:
 1631               	.global	MN000
 1632               		.section	.progmem.data,"a",@progbits
 1635               	MN000:
 1636 0000 2020 2020 		.string	"      Sine      "
 1636      2020 5369 
 1636      6E65 2020 
 1636      2020 2020 
 1636      00
 1637 0011 00        		.string	""
 1638               	.global	MN100
 1641               	MN100:
 1642 0012 2020 2020 		.string	"     Square     "
 1642      2053 7175 
 1642      6172 6520 
 1642      2020 2020 
 1642      00
 1643 0023 00        		.string	""
 1644               	.global	MN200
 1647               	MN200:
 1648 0024 2020 2020 		.string	"    Triangle    "
 1648      5472 6961 
 1648      6E67 6C65 
 1648      2020 2020 
 1648      00
 1649 0035 00        		.string	""
 1650               	.global	MN300
 1653               	MN300:
 1654 0036 2020 2020 		.string	"    SawTooth    "
 1654      5361 7754 
 1654      6F6F 7468 
 1654      2020 2020 
 1654      00
 1655 0047 00        		.string	""
 1656               	.global	MN400
 1659               	MN400:
 1660 0048 2020 5265 		.string	"  Rev SawTooth  "
 1660      7620 5361 
 1660      7754 6F6F 
 1660      7468 2020 
 1660      00
 1661 0059 00        		.string	""
 1662               	.global	MN500
 1665               	MN500:
 1666 005a 2020 2020 		.string	"      ECG       "
 1666      2020 4543 
 1666      4720 2020 
 1666      2020 2020 
 1666      00
 1667 006b 00        		.string	""
 1668               	.global	MN600
 1671               	MN600:
 1672 006c 2020 2020 		.string	"    Freq Step   "
 1672      4672 6571 
 1672      2053 7465 
 1672      7020 2020 
 1672      00
 1673 007d 00        		.string	""
 1674               	.global	MN700
 1677               	MN700:
 1678 007e 2020 2020 		.string	"     Noise      "
 1678      204E 6F69 
 1678      7365 2020 
 1678      2020 2020 
 1678      00
 1679 008f 00        		.string	""
 1680               	.global	MN800
 1683               	MN800:
 1684 0090 2020 2048 		.string	"   High Speed   "
 1684      6967 6820 
 1684      5370 6565 
 1684      6420 2020 
 1684      00
 1685 00a1 00        		.string	""
 1686               	.global	MENU
 1687               		.data
 1690               	MENU:
 1691 0019 0000      		.word	MN000
 1692 001b 0000      		.word	MN100
 1693 001d 0000      		.word	MN200
 1694 001f 0000      		.word	MN300
 1695 0021 0000      		.word	MN400
 1696 0023 0000      		.word	MN500
 1697 0025 0000      		.word	MN600
 1698 0027 0000      		.word	MN700
 1699 0029 0000      		.word	MN800
 1700               	.global	MNON
 1701               		.section	.progmem.data
 1704               	MNON:
 1705 00a2 4F4E 2000 		.string	"ON "
 1706 00a6 00        		.string	""
 1707               	.global	MNOFF
 1710               	MNOFF:
 1711 00a7 4F46 4600 		.string	"OFF"
 1712 00ab 00        		.string	""
 1713               	.global	NA
 1716               	NA:
 1717 00ac 2020 2020 		.string	"       NA       "
 1717      2020 204E 
 1717      4120 2020 
 1717      2020 2020 
 1717      00
 1718 00bd 00        		.string	""
 1719               	.global	CLR
 1722               	CLR:
 1723 00be 2020 2020 		.string	"                "
 1723      2020 2020 
 1723      2020 2020 
 1723      2020 2020 
 1723      00
 1724 00cf 00        		.string	""
 1725               	.global	MNClrfreq
 1728               	MNClrfreq:
 1729 00d0 2020 2020 		.string	"           "
 1729      2020 2020 
 1729      2020 2000 
 1730 00dc 00        		.string	""
 1731               	.global	TOEEPROM
 1734               	TOEEPROM:
 1735 00dd 5361 7669 		.string	"Saving Settings"
 1735      6E67 2053 
 1735      6574 7469 
 1735      6E67 7300 
 1736 00ed 00        		.string	""
 1737               	.global	ONEMHZ
 1740               	ONEMHZ:
 1741 00ee 2020 2020 		.string	"      1MHz   "
 1741      2020 314D 
 1741      487A 2020 
 1741      2000 
 1742 00fc 00        		.string	""
 1743               	.global	welcomeln1
 1746               	welcomeln1:
 1747 00fd 4156 5220 		.string	"AVR SIGNAL"
 1747      5349 474E 
 1747      414C 00
 1748 0108 00        		.string	""
 1749               	.global	RND
 1752               	RND:
 1753 0109 2020 2020 		.string	"    Random"
 1753      5261 6E64 
 1753      6F6D 00
 1754 0114 00        		.string	""
 1755               	.global	sinewave
 1756               		.section	.MySection1,"a",@progbits
 1759               	sinewave:
 1760 0000 80        		.byte	-128
 1761 0001 83        		.byte	-125
 1762 0002 86        		.byte	-122
 1763 0003 89        		.byte	-119
 1764 0004 8C        		.byte	-116
 1765 0005 8F        		.byte	-113
 1766 0006 92        		.byte	-110
 1767 0007 95        		.byte	-107
 1768 0008 98        		.byte	-104
 1769 0009 9C        		.byte	-100
 1770 000a 9F        		.byte	-97
 1771 000b A2        		.byte	-94
 1772 000c A5        		.byte	-91
 1773 000d A8        		.byte	-88
 1774 000e AB        		.byte	-85
 1775 000f AE        		.byte	-82
 1776 0010 B0        		.byte	-80
 1777 0011 B3        		.byte	-77
 1778 0012 B6        		.byte	-74
 1779 0013 B9        		.byte	-71
 1780 0014 BC        		.byte	-68
 1781 0015 BF        		.byte	-65
 1782 0016 C1        		.byte	-63
 1783 0017 C4        		.byte	-60
 1784 0018 C7        		.byte	-57
 1785 0019 C9        		.byte	-55
 1786 001a CC        		.byte	-52
 1787 001b CE        		.byte	-50
 1788 001c D1        		.byte	-47
 1789 001d D3        		.byte	-45
 1790 001e D5        		.byte	-43
 1791 001f D8        		.byte	-40
 1792 0020 DA        		.byte	-38
 1793 0021 DC        		.byte	-36
 1794 0022 DE        		.byte	-34
 1795 0023 E0        		.byte	-32
 1796 0024 E2        		.byte	-30
 1797 0025 E4        		.byte	-28
 1798 0026 E6        		.byte	-26
 1799 0027 E8        		.byte	-24
 1800 0028 EA        		.byte	-22
 1801 0029 EC        		.byte	-20
 1802 002a ED        		.byte	-19
 1803 002b EF        		.byte	-17
 1804 002c F0        		.byte	-16
 1805 002d F2        		.byte	-14
 1806 002e F3        		.byte	-13
 1807 002f F5        		.byte	-11
 1808 0030 F6        		.byte	-10
 1809 0031 F7        		.byte	-9
 1810 0032 F8        		.byte	-8
 1811 0033 F9        		.byte	-7
 1812 0034 FA        		.byte	-6
 1813 0035 FB        		.byte	-5
 1814 0036 FC        		.byte	-4
 1815 0037 FC        		.byte	-4
 1816 0038 FD        		.byte	-3
 1817 0039 FE        		.byte	-2
 1818 003a FE        		.byte	-2
 1819 003b FF        		.byte	-1
 1820 003c FF        		.byte	-1
 1821 003d FF        		.byte	-1
 1822 003e FF        		.byte	-1
 1823 003f FF        		.byte	-1
 1824 0040 FF        		.byte	-1
 1825 0041 FF        		.byte	-1
 1826 0042 FF        		.byte	-1
 1827 0043 FF        		.byte	-1
 1828 0044 FF        		.byte	-1
 1829 0045 FF        		.byte	-1
 1830 0046 FE        		.byte	-2
 1831 0047 FE        		.byte	-2
 1832 0048 FD        		.byte	-3
 1833 0049 FC        		.byte	-4
 1834 004a FC        		.byte	-4
 1835 004b FB        		.byte	-5
 1836 004c FA        		.byte	-6
 1837 004d F9        		.byte	-7
 1838 004e F8        		.byte	-8
 1839 004f F7        		.byte	-9
 1840 0050 F6        		.byte	-10
 1841 0051 F5        		.byte	-11
 1842 0052 F3        		.byte	-13
 1843 0053 F2        		.byte	-14
 1844 0054 F0        		.byte	-16
 1845 0055 EF        		.byte	-17
 1846 0056 ED        		.byte	-19
 1847 0057 EC        		.byte	-20
 1848 0058 EA        		.byte	-22
 1849 0059 E8        		.byte	-24
 1850 005a E6        		.byte	-26
 1851 005b E4        		.byte	-28
 1852 005c E2        		.byte	-30
 1853 005d E0        		.byte	-32
 1854 005e DE        		.byte	-34
 1855 005f DC        		.byte	-36
 1856 0060 DA        		.byte	-38
 1857 0061 D8        		.byte	-40
 1858 0062 D5        		.byte	-43
 1859 0063 D3        		.byte	-45
 1860 0064 D1        		.byte	-47
 1861 0065 CE        		.byte	-50
 1862 0066 CC        		.byte	-52
 1863 0067 C9        		.byte	-55
 1864 0068 C7        		.byte	-57
 1865 0069 C4        		.byte	-60
 1866 006a C1        		.byte	-63
 1867 006b BF        		.byte	-65
 1868 006c BC        		.byte	-68
 1869 006d B9        		.byte	-71
 1870 006e B6        		.byte	-74
 1871 006f B3        		.byte	-77
 1872 0070 B0        		.byte	-80
 1873 0071 AE        		.byte	-82
 1874 0072 AB        		.byte	-85
 1875 0073 A8        		.byte	-88
 1876 0074 A5        		.byte	-91
 1877 0075 A2        		.byte	-94
 1878 0076 9F        		.byte	-97
 1879 0077 9C        		.byte	-100
 1880 0078 98        		.byte	-104
 1881 0079 95        		.byte	-107
 1882 007a 92        		.byte	-110
 1883 007b 8F        		.byte	-113
 1884 007c 8C        		.byte	-116
 1885 007d 89        		.byte	-119
 1886 007e 86        		.byte	-122
 1887 007f 83        		.byte	-125
 1888 0080 80        		.byte	-128
 1889 0081 7C        		.byte	124
 1890 0082 79        		.byte	121
 1891 0083 76        		.byte	118
 1892 0084 73        		.byte	115
 1893 0085 70        		.byte	112
 1894 0086 6D        		.byte	109
 1895 0087 6A        		.byte	106
 1896 0088 67        		.byte	103
 1897 0089 63        		.byte	99
 1898 008a 60        		.byte	96
 1899 008b 5D        		.byte	93
 1900 008c 5A        		.byte	90
 1901 008d 57        		.byte	87
 1902 008e 54        		.byte	84
 1903 008f 51        		.byte	81
 1904 0090 4F        		.byte	79
 1905 0091 4C        		.byte	76
 1906 0092 49        		.byte	73
 1907 0093 46        		.byte	70
 1908 0094 43        		.byte	67
 1909 0095 40        		.byte	64
 1910 0096 3E        		.byte	62
 1911 0097 3B        		.byte	59
 1912 0098 38        		.byte	56
 1913 0099 36        		.byte	54
 1914 009a 33        		.byte	51
 1915 009b 31        		.byte	49
 1916 009c 2E        		.byte	46
 1917 009d 2C        		.byte	44
 1918 009e 2A        		.byte	42
 1919 009f 27        		.byte	39
 1920 00a0 25        		.byte	37
 1921 00a1 23        		.byte	35
 1922 00a2 21        		.byte	33
 1923 00a3 1F        		.byte	31
 1924 00a4 1D        		.byte	29
 1925 00a5 1B        		.byte	27
 1926 00a6 19        		.byte	25
 1927 00a7 17        		.byte	23
 1928 00a8 15        		.byte	21
 1929 00a9 13        		.byte	19
 1930 00aa 12        		.byte	18
 1931 00ab 10        		.byte	16
 1932 00ac 0F        		.byte	15
 1933 00ad 0D        		.byte	13
 1934 00ae 0C        		.byte	12
 1935 00af 0A        		.byte	10
 1936 00b0 09        		.byte	9
 1937 00b1 08        		.byte	8
 1938 00b2 07        		.byte	7
 1939 00b3 06        		.byte	6
 1940 00b4 05        		.byte	5
 1941 00b5 04        		.byte	4
 1942 00b6 03        		.byte	3
 1943 00b7 03        		.byte	3
 1944 00b8 02        		.byte	2
 1945 00b9 01        		.byte	1
 1946 00ba 01        		.byte	1
 1947 00bb 00        		.byte	0
 1948 00bc 00        		.byte	0
 1949 00bd 00        		.byte	0
 1950 00be 00        		.byte	0
 1951 00bf 00        		.byte	0
 1952 00c0 00        		.byte	0
 1953 00c1 00        		.byte	0
 1954 00c2 00        		.byte	0
 1955 00c3 00        		.byte	0
 1956 00c4 00        		.byte	0
 1957 00c5 00        		.byte	0
 1958 00c6 01        		.byte	1
 1959 00c7 01        		.byte	1
 1960 00c8 02        		.byte	2
 1961 00c9 03        		.byte	3
 1962 00ca 03        		.byte	3
 1963 00cb 04        		.byte	4
 1964 00cc 05        		.byte	5
 1965 00cd 06        		.byte	6
 1966 00ce 07        		.byte	7
 1967 00cf 08        		.byte	8
 1968 00d0 09        		.byte	9
 1969 00d1 0A        		.byte	10
 1970 00d2 0C        		.byte	12
 1971 00d3 0D        		.byte	13
 1972 00d4 0F        		.byte	15
 1973 00d5 10        		.byte	16
 1974 00d6 12        		.byte	18
 1975 00d7 13        		.byte	19
 1976 00d8 15        		.byte	21
 1977 00d9 17        		.byte	23
 1978 00da 19        		.byte	25
 1979 00db 1B        		.byte	27
 1980 00dc 1D        		.byte	29
 1981 00dd 1F        		.byte	31
 1982 00de 21        		.byte	33
 1983 00df 23        		.byte	35
 1984 00e0 25        		.byte	37
 1985 00e1 27        		.byte	39
 1986 00e2 2A        		.byte	42
 1987 00e3 2C        		.byte	44
 1988 00e4 2E        		.byte	46
 1989 00e5 31        		.byte	49
 1990 00e6 33        		.byte	51
 1991 00e7 36        		.byte	54
 1992 00e8 38        		.byte	56
 1993 00e9 3B        		.byte	59
 1994 00ea 3E        		.byte	62
 1995 00eb 40        		.byte	64
 1996 00ec 43        		.byte	67
 1997 00ed 46        		.byte	70
 1998 00ee 49        		.byte	73
 1999 00ef 4C        		.byte	76
 2000 00f0 4F        		.byte	79
 2001 00f1 51        		.byte	81
 2002 00f2 54        		.byte	84
 2003 00f3 57        		.byte	87
 2004 00f4 5A        		.byte	90
 2005 00f5 5D        		.byte	93
 2006 00f6 60        		.byte	96
 2007 00f7 63        		.byte	99
 2008 00f8 67        		.byte	103
 2009 00f9 6A        		.byte	106
 2010 00fa 6D        		.byte	109
 2011 00fb 70        		.byte	112
 2012 00fc 73        		.byte	115
 2013 00fd 76        		.byte	118
 2014 00fe 79        		.byte	121
 2015 00ff 7C        		.byte	124
 2016               	.global	squarewave
 2017               		.section	.MySection2,"a",@progbits
 2020               	squarewave:
 2021 0000 00        		.byte	0
 2022 0001 00        		.byte	0
 2023 0002 00        		.byte	0
 2024 0003 00        		.byte	0
 2025 0004 00        		.byte	0
 2026 0005 00        		.byte	0
 2027 0006 00        		.byte	0
 2028 0007 00        		.byte	0
 2029 0008 00        		.byte	0
 2030 0009 00        		.byte	0
 2031 000a 00        		.byte	0
 2032 000b 00        		.byte	0
 2033 000c 00        		.byte	0
 2034 000d 00        		.byte	0
 2035 000e 00        		.byte	0
 2036 000f 00        		.byte	0
 2037 0010 00        		.byte	0
 2038 0011 00        		.byte	0
 2039 0012 00        		.byte	0
 2040 0013 00        		.byte	0
 2041 0014 00        		.byte	0
 2042 0015 00        		.byte	0
 2043 0016 00        		.byte	0
 2044 0017 00        		.byte	0
 2045 0018 00        		.byte	0
 2046 0019 00        		.byte	0
 2047 001a 00        		.byte	0
 2048 001b 00        		.byte	0
 2049 001c 00        		.byte	0
 2050 001d 00        		.byte	0
 2051 001e 00        		.byte	0
 2052 001f 00        		.byte	0
 2053 0020 00        		.byte	0
 2054 0021 00        		.byte	0
 2055 0022 00        		.byte	0
 2056 0023 00        		.byte	0
 2057 0024 00        		.byte	0
 2058 0025 00        		.byte	0
 2059 0026 00        		.byte	0
 2060 0027 00        		.byte	0
 2061 0028 00        		.byte	0
 2062 0029 00        		.byte	0
 2063 002a 00        		.byte	0
 2064 002b 00        		.byte	0
 2065 002c 00        		.byte	0
 2066 002d 00        		.byte	0
 2067 002e 00        		.byte	0
 2068 002f 00        		.byte	0
 2069 0030 00        		.byte	0
 2070 0031 00        		.byte	0
 2071 0032 00        		.byte	0
 2072 0033 00        		.byte	0
 2073 0034 00        		.byte	0
 2074 0035 00        		.byte	0
 2075 0036 00        		.byte	0
 2076 0037 00        		.byte	0
 2077 0038 00        		.byte	0
 2078 0039 00        		.byte	0
 2079 003a 00        		.byte	0
 2080 003b 00        		.byte	0
 2081 003c 00        		.byte	0
 2082 003d 00        		.byte	0
 2083 003e 00        		.byte	0
 2084 003f 00        		.byte	0
 2085 0040 00        		.byte	0
 2086 0041 00        		.byte	0
 2087 0042 00        		.byte	0
 2088 0043 00        		.byte	0
 2089 0044 00        		.byte	0
 2090 0045 00        		.byte	0
 2091 0046 00        		.byte	0
 2092 0047 00        		.byte	0
 2093 0048 00        		.byte	0
 2094 0049 00        		.byte	0
 2095 004a 00        		.byte	0
 2096 004b 00        		.byte	0
 2097 004c 00        		.byte	0
 2098 004d 00        		.byte	0
 2099 004e 00        		.byte	0
 2100 004f 00        		.byte	0
 2101 0050 00        		.byte	0
 2102 0051 00        		.byte	0
 2103 0052 00        		.byte	0
 2104 0053 00        		.byte	0
 2105 0054 00        		.byte	0
 2106 0055 00        		.byte	0
 2107 0056 00        		.byte	0
 2108 0057 00        		.byte	0
 2109 0058 00        		.byte	0
 2110 0059 00        		.byte	0
 2111 005a 00        		.byte	0
 2112 005b 00        		.byte	0
 2113 005c 00        		.byte	0
 2114 005d 00        		.byte	0
 2115 005e 00        		.byte	0
 2116 005f 00        		.byte	0
 2117 0060 00        		.byte	0
 2118 0061 00        		.byte	0
 2119 0062 00        		.byte	0
 2120 0063 00        		.byte	0
 2121 0064 00        		.byte	0
 2122 0065 00        		.byte	0
 2123 0066 00        		.byte	0
 2124 0067 00        		.byte	0
 2125 0068 00        		.byte	0
 2126 0069 00        		.byte	0
 2127 006a 00        		.byte	0
 2128 006b 00        		.byte	0
 2129 006c 00        		.byte	0
 2130 006d 00        		.byte	0
 2131 006e 00        		.byte	0
 2132 006f 00        		.byte	0
 2133 0070 00        		.byte	0
 2134 0071 00        		.byte	0
 2135 0072 00        		.byte	0
 2136 0073 00        		.byte	0
 2137 0074 00        		.byte	0
 2138 0075 00        		.byte	0
 2139 0076 00        		.byte	0
 2140 0077 00        		.byte	0
 2141 0078 00        		.byte	0
 2142 0079 00        		.byte	0
 2143 007a 00        		.byte	0
 2144 007b 00        		.byte	0
 2145 007c 00        		.byte	0
 2146 007d 00        		.byte	0
 2147 007e 00        		.byte	0
 2148 007f 00        		.byte	0
 2149 0080 FF        		.byte	-1
 2150 0081 FF        		.byte	-1
 2151 0082 FF        		.byte	-1
 2152 0083 FF        		.byte	-1
 2153 0084 FF        		.byte	-1
 2154 0085 FF        		.byte	-1
 2155 0086 FF        		.byte	-1
 2156 0087 FF        		.byte	-1
 2157 0088 FF        		.byte	-1
 2158 0089 FF        		.byte	-1
 2159 008a FF        		.byte	-1
 2160 008b FF        		.byte	-1
 2161 008c FF        		.byte	-1
 2162 008d FF        		.byte	-1
 2163 008e FF        		.byte	-1
 2164 008f FF        		.byte	-1
 2165 0090 FF        		.byte	-1
 2166 0091 FF        		.byte	-1
 2167 0092 FF        		.byte	-1
 2168 0093 FF        		.byte	-1
 2169 0094 FF        		.byte	-1
 2170 0095 FF        		.byte	-1
 2171 0096 FF        		.byte	-1
 2172 0097 FF        		.byte	-1
 2173 0098 FF        		.byte	-1
 2174 0099 FF        		.byte	-1
 2175 009a FF        		.byte	-1
 2176 009b FF        		.byte	-1
 2177 009c FF        		.byte	-1
 2178 009d FF        		.byte	-1
 2179 009e FF        		.byte	-1
 2180 009f FF        		.byte	-1
 2181 00a0 FF        		.byte	-1
 2182 00a1 FF        		.byte	-1
 2183 00a2 FF        		.byte	-1
 2184 00a3 FF        		.byte	-1
 2185 00a4 FF        		.byte	-1
 2186 00a5 FF        		.byte	-1
 2187 00a6 FF        		.byte	-1
 2188 00a7 FF        		.byte	-1
 2189 00a8 FF        		.byte	-1
 2190 00a9 FF        		.byte	-1
 2191 00aa FF        		.byte	-1
 2192 00ab FF        		.byte	-1
 2193 00ac FF        		.byte	-1
 2194 00ad FF        		.byte	-1
 2195 00ae FF        		.byte	-1
 2196 00af FF        		.byte	-1
 2197 00b0 FF        		.byte	-1
 2198 00b1 FF        		.byte	-1
 2199 00b2 FF        		.byte	-1
 2200 00b3 FF        		.byte	-1
 2201 00b4 FF        		.byte	-1
 2202 00b5 FF        		.byte	-1
 2203 00b6 FF        		.byte	-1
 2204 00b7 FF        		.byte	-1
 2205 00b8 FF        		.byte	-1
 2206 00b9 FF        		.byte	-1
 2207 00ba FF        		.byte	-1
 2208 00bb FF        		.byte	-1
 2209 00bc FF        		.byte	-1
 2210 00bd FF        		.byte	-1
 2211 00be FF        		.byte	-1
 2212 00bf FF        		.byte	-1
 2213 00c0 FF        		.byte	-1
 2214 00c1 FF        		.byte	-1
 2215 00c2 FF        		.byte	-1
 2216 00c3 FF        		.byte	-1
 2217 00c4 FF        		.byte	-1
 2218 00c5 FF        		.byte	-1
 2219 00c6 FF        		.byte	-1
 2220 00c7 FF        		.byte	-1
 2221 00c8 FF        		.byte	-1
 2222 00c9 FF        		.byte	-1
 2223 00ca FF        		.byte	-1
 2224 00cb FF        		.byte	-1
 2225 00cc FF        		.byte	-1
 2226 00cd FF        		.byte	-1
 2227 00ce FF        		.byte	-1
 2228 00cf FF        		.byte	-1
 2229 00d0 FF        		.byte	-1
 2230 00d1 FF        		.byte	-1
 2231 00d2 FF        		.byte	-1
 2232 00d3 FF        		.byte	-1
 2233 00d4 FF        		.byte	-1
 2234 00d5 FF        		.byte	-1
 2235 00d6 FF        		.byte	-1
 2236 00d7 FF        		.byte	-1
 2237 00d8 FF        		.byte	-1
 2238 00d9 FF        		.byte	-1
 2239 00da FF        		.byte	-1
 2240 00db FF        		.byte	-1
 2241 00dc FF        		.byte	-1
 2242 00dd FF        		.byte	-1
 2243 00de FF        		.byte	-1
 2244 00df FF        		.byte	-1
 2245 00e0 FF        		.byte	-1
 2246 00e1 FF        		.byte	-1
 2247 00e2 FF        		.byte	-1
 2248 00e3 FF        		.byte	-1
 2249 00e4 FF        		.byte	-1
 2250 00e5 FF        		.byte	-1
 2251 00e6 FF        		.byte	-1
 2252 00e7 FF        		.byte	-1
 2253 00e8 FF        		.byte	-1
 2254 00e9 FF        		.byte	-1
 2255 00ea FF        		.byte	-1
 2256 00eb FF        		.byte	-1
 2257 00ec FF        		.byte	-1
 2258 00ed FF        		.byte	-1
 2259 00ee FF        		.byte	-1
 2260 00ef FF        		.byte	-1
 2261 00f0 FF        		.byte	-1
 2262 00f1 FF        		.byte	-1
 2263 00f2 FF        		.byte	-1
 2264 00f3 FF        		.byte	-1
 2265 00f4 FF        		.byte	-1
 2266 00f5 FF        		.byte	-1
 2267 00f6 FF        		.byte	-1
 2268 00f7 FF        		.byte	-1
 2269 00f8 FF        		.byte	-1
 2270 00f9 FF        		.byte	-1
 2271 00fa FF        		.byte	-1
 2272 00fb FF        		.byte	-1
 2273 00fc FF        		.byte	-1
 2274 00fd FF        		.byte	-1
 2275 00fe FF        		.byte	-1
 2276 00ff FF        		.byte	-1
 2277               	.global	sawtoothwave
 2278               		.section	.MySection3,"a",@progbits
 2281               	sawtoothwave:
 2282 0000 00        		.byte	0
 2283 0001 01        		.byte	1
 2284 0002 02        		.byte	2
 2285 0003 03        		.byte	3
 2286 0004 04        		.byte	4
 2287 0005 05        		.byte	5
 2288 0006 06        		.byte	6
 2289 0007 07        		.byte	7
 2290 0008 08        		.byte	8
 2291 0009 09        		.byte	9
 2292 000a 0A        		.byte	10
 2293 000b 0B        		.byte	11
 2294 000c 0C        		.byte	12
 2295 000d 0D        		.byte	13
 2296 000e 0E        		.byte	14
 2297 000f 0F        		.byte	15
 2298 0010 10        		.byte	16
 2299 0011 11        		.byte	17
 2300 0012 12        		.byte	18
 2301 0013 13        		.byte	19
 2302 0014 14        		.byte	20
 2303 0015 15        		.byte	21
 2304 0016 16        		.byte	22
 2305 0017 17        		.byte	23
 2306 0018 18        		.byte	24
 2307 0019 19        		.byte	25
 2308 001a 1A        		.byte	26
 2309 001b 1B        		.byte	27
 2310 001c 1C        		.byte	28
 2311 001d 1D        		.byte	29
 2312 001e 1E        		.byte	30
 2313 001f 1F        		.byte	31
 2314 0020 20        		.byte	32
 2315 0021 21        		.byte	33
 2316 0022 22        		.byte	34
 2317 0023 23        		.byte	35
 2318 0024 24        		.byte	36
 2319 0025 25        		.byte	37
 2320 0026 26        		.byte	38
 2321 0027 27        		.byte	39
 2322 0028 28        		.byte	40
 2323 0029 29        		.byte	41
 2324 002a 2A        		.byte	42
 2325 002b 2B        		.byte	43
 2326 002c 2C        		.byte	44
 2327 002d 2D        		.byte	45
 2328 002e 2E        		.byte	46
 2329 002f 2F        		.byte	47
 2330 0030 30        		.byte	48
 2331 0031 31        		.byte	49
 2332 0032 32        		.byte	50
 2333 0033 33        		.byte	51
 2334 0034 34        		.byte	52
 2335 0035 35        		.byte	53
 2336 0036 36        		.byte	54
 2337 0037 37        		.byte	55
 2338 0038 38        		.byte	56
 2339 0039 39        		.byte	57
 2340 003a 3A        		.byte	58
 2341 003b 3B        		.byte	59
 2342 003c 3C        		.byte	60
 2343 003d 3D        		.byte	61
 2344 003e 3E        		.byte	62
 2345 003f 3F        		.byte	63
 2346 0040 40        		.byte	64
 2347 0041 41        		.byte	65
 2348 0042 42        		.byte	66
 2349 0043 43        		.byte	67
 2350 0044 44        		.byte	68
 2351 0045 45        		.byte	69
 2352 0046 46        		.byte	70
 2353 0047 47        		.byte	71
 2354 0048 48        		.byte	72
 2355 0049 49        		.byte	73
 2356 004a 4A        		.byte	74
 2357 004b 4B        		.byte	75
 2358 004c 4C        		.byte	76
 2359 004d 4D        		.byte	77
 2360 004e 4E        		.byte	78
 2361 004f 4F        		.byte	79
 2362 0050 50        		.byte	80
 2363 0051 51        		.byte	81
 2364 0052 52        		.byte	82
 2365 0053 53        		.byte	83
 2366 0054 54        		.byte	84
 2367 0055 55        		.byte	85
 2368 0056 56        		.byte	86
 2369 0057 57        		.byte	87
 2370 0058 58        		.byte	88
 2371 0059 59        		.byte	89
 2372 005a 5A        		.byte	90
 2373 005b 5B        		.byte	91
 2374 005c 5C        		.byte	92
 2375 005d 5D        		.byte	93
 2376 005e 5E        		.byte	94
 2377 005f 5F        		.byte	95
 2378 0060 60        		.byte	96
 2379 0061 61        		.byte	97
 2380 0062 62        		.byte	98
 2381 0063 63        		.byte	99
 2382 0064 64        		.byte	100
 2383 0065 65        		.byte	101
 2384 0066 66        		.byte	102
 2385 0067 67        		.byte	103
 2386 0068 68        		.byte	104
 2387 0069 69        		.byte	105
 2388 006a 6A        		.byte	106
 2389 006b 6B        		.byte	107
 2390 006c 6C        		.byte	108
 2391 006d 6D        		.byte	109
 2392 006e 6E        		.byte	110
 2393 006f 6F        		.byte	111
 2394 0070 70        		.byte	112
 2395 0071 71        		.byte	113
 2396 0072 72        		.byte	114
 2397 0073 73        		.byte	115
 2398 0074 74        		.byte	116
 2399 0075 75        		.byte	117
 2400 0076 76        		.byte	118
 2401 0077 77        		.byte	119
 2402 0078 78        		.byte	120
 2403 0079 79        		.byte	121
 2404 007a 7A        		.byte	122
 2405 007b 7B        		.byte	123
 2406 007c 7C        		.byte	124
 2407 007d 7D        		.byte	125
 2408 007e 7E        		.byte	126
 2409 007f 7F        		.byte	127
 2410 0080 80        		.byte	-128
 2411 0081 81        		.byte	-127
 2412 0082 82        		.byte	-126
 2413 0083 83        		.byte	-125
 2414 0084 84        		.byte	-124
 2415 0085 85        		.byte	-123
 2416 0086 86        		.byte	-122
 2417 0087 87        		.byte	-121
 2418 0088 88        		.byte	-120
 2419 0089 89        		.byte	-119
 2420 008a 8A        		.byte	-118
 2421 008b 8B        		.byte	-117
 2422 008c 8C        		.byte	-116
 2423 008d 8D        		.byte	-115
 2424 008e 8E        		.byte	-114
 2425 008f 8F        		.byte	-113
 2426 0090 90        		.byte	-112
 2427 0091 91        		.byte	-111
 2428 0092 92        		.byte	-110
 2429 0093 93        		.byte	-109
 2430 0094 94        		.byte	-108
 2431 0095 95        		.byte	-107
 2432 0096 96        		.byte	-106
 2433 0097 97        		.byte	-105
 2434 0098 98        		.byte	-104
 2435 0099 99        		.byte	-103
 2436 009a 9A        		.byte	-102
 2437 009b 9B        		.byte	-101
 2438 009c 9C        		.byte	-100
 2439 009d 9D        		.byte	-99
 2440 009e 9E        		.byte	-98
 2441 009f 9F        		.byte	-97
 2442 00a0 A0        		.byte	-96
 2443 00a1 A1        		.byte	-95
 2444 00a2 A2        		.byte	-94
 2445 00a3 A3        		.byte	-93
 2446 00a4 A4        		.byte	-92
 2447 00a5 A5        		.byte	-91
 2448 00a6 A6        		.byte	-90
 2449 00a7 A7        		.byte	-89
 2450 00a8 A8        		.byte	-88
 2451 00a9 A9        		.byte	-87
 2452 00aa AA        		.byte	-86
 2453 00ab AB        		.byte	-85
 2454 00ac AC        		.byte	-84
 2455 00ad AD        		.byte	-83
 2456 00ae AE        		.byte	-82
 2457 00af AF        		.byte	-81
 2458 00b0 B0        		.byte	-80
 2459 00b1 B1        		.byte	-79
 2460 00b2 B2        		.byte	-78
 2461 00b3 B3        		.byte	-77
 2462 00b4 B4        		.byte	-76
 2463 00b5 B5        		.byte	-75
 2464 00b6 B6        		.byte	-74
 2465 00b7 B7        		.byte	-73
 2466 00b8 B8        		.byte	-72
 2467 00b9 B9        		.byte	-71
 2468 00ba BA        		.byte	-70
 2469 00bb BB        		.byte	-69
 2470 00bc BC        		.byte	-68
 2471 00bd BD        		.byte	-67
 2472 00be BE        		.byte	-66
 2473 00bf BF        		.byte	-65
 2474 00c0 C0        		.byte	-64
 2475 00c1 C1        		.byte	-63
 2476 00c2 C2        		.byte	-62
 2477 00c3 C3        		.byte	-61
 2478 00c4 C4        		.byte	-60
 2479 00c5 C5        		.byte	-59
 2480 00c6 C6        		.byte	-58
 2481 00c7 C7        		.byte	-57
 2482 00c8 C8        		.byte	-56
 2483 00c9 C9        		.byte	-55
 2484 00ca CA        		.byte	-54
 2485 00cb CB        		.byte	-53
 2486 00cc CC        		.byte	-52
 2487 00cd CD        		.byte	-51
 2488 00ce CE        		.byte	-50
 2489 00cf CF        		.byte	-49
 2490 00d0 D0        		.byte	-48
 2491 00d1 D1        		.byte	-47
 2492 00d2 D2        		.byte	-46
 2493 00d3 D3        		.byte	-45
 2494 00d4 D4        		.byte	-44
 2495 00d5 D5        		.byte	-43
 2496 00d6 D6        		.byte	-42
 2497 00d7 D7        		.byte	-41
 2498 00d8 D8        		.byte	-40
 2499 00d9 D9        		.byte	-39
 2500 00da DA        		.byte	-38
 2501 00db DB        		.byte	-37
 2502 00dc DC        		.byte	-36
 2503 00dd DD        		.byte	-35
 2504 00de DE        		.byte	-34
 2505 00df DF        		.byte	-33
 2506 00e0 E0        		.byte	-32
 2507 00e1 E1        		.byte	-31
 2508 00e2 E2        		.byte	-30
 2509 00e3 E3        		.byte	-29
 2510 00e4 E4        		.byte	-28
 2511 00e5 E5        		.byte	-27
 2512 00e6 E6        		.byte	-26
 2513 00e7 E7        		.byte	-25
 2514 00e8 E8        		.byte	-24
 2515 00e9 E9        		.byte	-23
 2516 00ea EA        		.byte	-22
 2517 00eb EB        		.byte	-21
 2518 00ec EC        		.byte	-20
 2519 00ed ED        		.byte	-19
 2520 00ee EE        		.byte	-18
 2521 00ef EF        		.byte	-17
 2522 00f0 F0        		.byte	-16
 2523 00f1 F1        		.byte	-15
 2524 00f2 F2        		.byte	-14
 2525 00f3 F3        		.byte	-13
 2526 00f4 F4        		.byte	-12
 2527 00f5 F5        		.byte	-11
 2528 00f6 F6        		.byte	-10
 2529 00f7 F7        		.byte	-9
 2530 00f8 F8        		.byte	-8
 2531 00f9 F9        		.byte	-7
 2532 00fa FA        		.byte	-6
 2533 00fb FB        		.byte	-5
 2534 00fc FC        		.byte	-4
 2535 00fd FD        		.byte	-3
 2536 00fe FE        		.byte	-2
 2537 00ff FF        		.byte	-1
 2538               	.global	rewsawtoothwave
 2539               		.section	.MySection4,"a",@progbits
 2542               	rewsawtoothwave:
 2543 0000 FF        		.byte	-1
 2544 0001 FE        		.byte	-2
 2545 0002 FD        		.byte	-3
 2546 0003 FC        		.byte	-4
 2547 0004 FB        		.byte	-5
 2548 0005 FA        		.byte	-6
 2549 0006 F9        		.byte	-7
 2550 0007 F8        		.byte	-8
 2551 0008 F7        		.byte	-9
 2552 0009 F6        		.byte	-10
 2553 000a F5        		.byte	-11
 2554 000b F4        		.byte	-12
 2555 000c F3        		.byte	-13
 2556 000d F2        		.byte	-14
 2557 000e F1        		.byte	-15
 2558 000f F0        		.byte	-16
 2559 0010 EF        		.byte	-17
 2560 0011 EE        		.byte	-18
 2561 0012 ED        		.byte	-19
 2562 0013 EC        		.byte	-20
 2563 0014 EB        		.byte	-21
 2564 0015 EA        		.byte	-22
 2565 0016 E9        		.byte	-23
 2566 0017 E8        		.byte	-24
 2567 0018 E7        		.byte	-25
 2568 0019 E6        		.byte	-26
 2569 001a E5        		.byte	-27
 2570 001b E4        		.byte	-28
 2571 001c E3        		.byte	-29
 2572 001d E2        		.byte	-30
 2573 001e E1        		.byte	-31
 2574 001f E0        		.byte	-32
 2575 0020 DF        		.byte	-33
 2576 0021 DE        		.byte	-34
 2577 0022 DD        		.byte	-35
 2578 0023 DC        		.byte	-36
 2579 0024 DB        		.byte	-37
 2580 0025 DA        		.byte	-38
 2581 0026 D9        		.byte	-39
 2582 0027 D8        		.byte	-40
 2583 0028 D7        		.byte	-41
 2584 0029 D6        		.byte	-42
 2585 002a D5        		.byte	-43
 2586 002b D4        		.byte	-44
 2587 002c D3        		.byte	-45
 2588 002d D2        		.byte	-46
 2589 002e D1        		.byte	-47
 2590 002f D0        		.byte	-48
 2591 0030 CF        		.byte	-49
 2592 0031 CE        		.byte	-50
 2593 0032 CD        		.byte	-51
 2594 0033 CC        		.byte	-52
 2595 0034 CB        		.byte	-53
 2596 0035 CA        		.byte	-54
 2597 0036 C9        		.byte	-55
 2598 0037 C8        		.byte	-56
 2599 0038 C7        		.byte	-57
 2600 0039 C6        		.byte	-58
 2601 003a C5        		.byte	-59
 2602 003b C4        		.byte	-60
 2603 003c C3        		.byte	-61
 2604 003d C2        		.byte	-62
 2605 003e C1        		.byte	-63
 2606 003f C0        		.byte	-64
 2607 0040 BF        		.byte	-65
 2608 0041 BE        		.byte	-66
 2609 0042 BD        		.byte	-67
 2610 0043 BC        		.byte	-68
 2611 0044 BB        		.byte	-69
 2612 0045 BA        		.byte	-70
 2613 0046 B9        		.byte	-71
 2614 0047 B8        		.byte	-72
 2615 0048 B7        		.byte	-73
 2616 0049 B6        		.byte	-74
 2617 004a B5        		.byte	-75
 2618 004b B4        		.byte	-76
 2619 004c B3        		.byte	-77
 2620 004d B2        		.byte	-78
 2621 004e B1        		.byte	-79
 2622 004f B0        		.byte	-80
 2623 0050 AF        		.byte	-81
 2624 0051 AE        		.byte	-82
 2625 0052 AD        		.byte	-83
 2626 0053 AC        		.byte	-84
 2627 0054 AB        		.byte	-85
 2628 0055 AA        		.byte	-86
 2629 0056 A9        		.byte	-87
 2630 0057 A8        		.byte	-88
 2631 0058 A7        		.byte	-89
 2632 0059 A6        		.byte	-90
 2633 005a A5        		.byte	-91
 2634 005b A4        		.byte	-92
 2635 005c A3        		.byte	-93
 2636 005d A2        		.byte	-94
 2637 005e A1        		.byte	-95
 2638 005f A0        		.byte	-96
 2639 0060 9F        		.byte	-97
 2640 0061 9E        		.byte	-98
 2641 0062 9D        		.byte	-99
 2642 0063 9C        		.byte	-100
 2643 0064 9B        		.byte	-101
 2644 0065 9A        		.byte	-102
 2645 0066 99        		.byte	-103
 2646 0067 98        		.byte	-104
 2647 0068 97        		.byte	-105
 2648 0069 96        		.byte	-106
 2649 006a 95        		.byte	-107
 2650 006b 94        		.byte	-108
 2651 006c 93        		.byte	-109
 2652 006d 92        		.byte	-110
 2653 006e 91        		.byte	-111
 2654 006f 90        		.byte	-112
 2655 0070 8F        		.byte	-113
 2656 0071 8E        		.byte	-114
 2657 0072 8D        		.byte	-115
 2658 0073 8C        		.byte	-116
 2659 0074 8B        		.byte	-117
 2660 0075 8A        		.byte	-118
 2661 0076 89        		.byte	-119
 2662 0077 88        		.byte	-120
 2663 0078 87        		.byte	-121
 2664 0079 86        		.byte	-122
 2665 007a 85        		.byte	-123
 2666 007b 84        		.byte	-124
 2667 007c 83        		.byte	-125
 2668 007d 82        		.byte	-126
 2669 007e 81        		.byte	-127
 2670 007f 80        		.byte	-128
 2671 0080 7F        		.byte	127
 2672 0081 7E        		.byte	126
 2673 0082 7D        		.byte	125
 2674 0083 7C        		.byte	124
 2675 0084 7B        		.byte	123
 2676 0085 7A        		.byte	122
 2677 0086 79        		.byte	121
 2678 0087 78        		.byte	120
 2679 0088 77        		.byte	119
 2680 0089 76        		.byte	118
 2681 008a 75        		.byte	117
 2682 008b 74        		.byte	116
 2683 008c 73        		.byte	115
 2684 008d 72        		.byte	114
 2685 008e 71        		.byte	113
 2686 008f 70        		.byte	112
 2687 0090 6F        		.byte	111
 2688 0091 6E        		.byte	110
 2689 0092 6D        		.byte	109
 2690 0093 6C        		.byte	108
 2691 0094 6B        		.byte	107
 2692 0095 6A        		.byte	106
 2693 0096 69        		.byte	105
 2694 0097 68        		.byte	104
 2695 0098 67        		.byte	103
 2696 0099 66        		.byte	102
 2697 009a 65        		.byte	101
 2698 009b 64        		.byte	100
 2699 009c 63        		.byte	99
 2700 009d 62        		.byte	98
 2701 009e 61        		.byte	97
 2702 009f 60        		.byte	96
 2703 00a0 5F        		.byte	95
 2704 00a1 5E        		.byte	94
 2705 00a2 5D        		.byte	93
 2706 00a3 5C        		.byte	92
 2707 00a4 5B        		.byte	91
 2708 00a5 5A        		.byte	90
 2709 00a6 59        		.byte	89
 2710 00a7 58        		.byte	88
 2711 00a8 57        		.byte	87
 2712 00a9 56        		.byte	86
 2713 00aa 55        		.byte	85
 2714 00ab 54        		.byte	84
 2715 00ac 53        		.byte	83
 2716 00ad 52        		.byte	82
 2717 00ae 51        		.byte	81
 2718 00af 50        		.byte	80
 2719 00b0 4F        		.byte	79
 2720 00b1 4E        		.byte	78
 2721 00b2 4D        		.byte	77
 2722 00b3 4C        		.byte	76
 2723 00b4 4B        		.byte	75
 2724 00b5 4A        		.byte	74
 2725 00b6 49        		.byte	73
 2726 00b7 48        		.byte	72
 2727 00b8 47        		.byte	71
 2728 00b9 46        		.byte	70
 2729 00ba 45        		.byte	69
 2730 00bb 44        		.byte	68
 2731 00bc 43        		.byte	67
 2732 00bd 42        		.byte	66
 2733 00be 41        		.byte	65
 2734 00bf 40        		.byte	64
 2735 00c0 3F        		.byte	63
 2736 00c1 3E        		.byte	62
 2737 00c2 3D        		.byte	61
 2738 00c3 3C        		.byte	60
 2739 00c4 3B        		.byte	59
 2740 00c5 3A        		.byte	58
 2741 00c6 39        		.byte	57
 2742 00c7 38        		.byte	56
 2743 00c8 37        		.byte	55
 2744 00c9 36        		.byte	54
 2745 00ca 35        		.byte	53
 2746 00cb 34        		.byte	52
 2747 00cc 33        		.byte	51
 2748 00cd 32        		.byte	50
 2749 00ce 31        		.byte	49
 2750 00cf 30        		.byte	48
 2751 00d0 2F        		.byte	47
 2752 00d1 2E        		.byte	46
 2753 00d2 2D        		.byte	45
 2754 00d3 2C        		.byte	44
 2755 00d4 2B        		.byte	43
 2756 00d5 2A        		.byte	42
 2757 00d6 29        		.byte	41
 2758 00d7 28        		.byte	40
 2759 00d8 27        		.byte	39
 2760 00d9 26        		.byte	38
 2761 00da 25        		.byte	37
 2762 00db 24        		.byte	36
 2763 00dc 23        		.byte	35
 2764 00dd 22        		.byte	34
 2765 00de 21        		.byte	33
 2766 00df 20        		.byte	32
 2767 00e0 1F        		.byte	31
 2768 00e1 1E        		.byte	30
 2769 00e2 1D        		.byte	29
 2770 00e3 1C        		.byte	28
 2771 00e4 1B        		.byte	27
 2772 00e5 1A        		.byte	26
 2773 00e6 19        		.byte	25
 2774 00e7 18        		.byte	24
 2775 00e8 17        		.byte	23
 2776 00e9 16        		.byte	22
 2777 00ea 15        		.byte	21
 2778 00eb 14        		.byte	20
 2779 00ec 13        		.byte	19
 2780 00ed 12        		.byte	18
 2781 00ee 11        		.byte	17
 2782 00ef 10        		.byte	16
 2783 00f0 0F        		.byte	15
 2784 00f1 0E        		.byte	14
 2785 00f2 0D        		.byte	13
 2786 00f3 0C        		.byte	12
 2787 00f4 0B        		.byte	11
 2788 00f5 0A        		.byte	10
 2789 00f6 09        		.byte	9
 2790 00f7 08        		.byte	8
 2791 00f8 07        		.byte	7
 2792 00f9 06        		.byte	6
 2793 00fa 05        		.byte	5
 2794 00fb 04        		.byte	4
 2795 00fc 03        		.byte	3
 2796 00fd 02        		.byte	2
 2797 00fe 01        		.byte	1
 2798 00ff 00        		.byte	0
 2799               	.global	trianglewave
 2800               		.section	.MySection5,"a",@progbits
 2803               	trianglewave:
 2804 0000 00        		.byte	0
 2805 0001 02        		.byte	2
 2806 0002 04        		.byte	4
 2807 0003 06        		.byte	6
 2808 0004 08        		.byte	8
 2809 0005 0A        		.byte	10
 2810 0006 0C        		.byte	12
 2811 0007 0E        		.byte	14
 2812 0008 10        		.byte	16
 2813 0009 12        		.byte	18
 2814 000a 14        		.byte	20
 2815 000b 16        		.byte	22
 2816 000c 18        		.byte	24
 2817 000d 1A        		.byte	26
 2818 000e 1C        		.byte	28
 2819 000f 1E        		.byte	30
 2820 0010 20        		.byte	32
 2821 0011 22        		.byte	34
 2822 0012 24        		.byte	36
 2823 0013 26        		.byte	38
 2824 0014 28        		.byte	40
 2825 0015 2A        		.byte	42
 2826 0016 2C        		.byte	44
 2827 0017 2E        		.byte	46
 2828 0018 30        		.byte	48
 2829 0019 32        		.byte	50
 2830 001a 34        		.byte	52
 2831 001b 36        		.byte	54
 2832 001c 38        		.byte	56
 2833 001d 3A        		.byte	58
 2834 001e 3C        		.byte	60
 2835 001f 3E        		.byte	62
 2836 0020 40        		.byte	64
 2837 0021 42        		.byte	66
 2838 0022 44        		.byte	68
 2839 0023 46        		.byte	70
 2840 0024 48        		.byte	72
 2841 0025 4A        		.byte	74
 2842 0026 4C        		.byte	76
 2843 0027 4E        		.byte	78
 2844 0028 50        		.byte	80
 2845 0029 52        		.byte	82
 2846 002a 54        		.byte	84
 2847 002b 56        		.byte	86
 2848 002c 58        		.byte	88
 2849 002d 5A        		.byte	90
 2850 002e 5C        		.byte	92
 2851 002f 5E        		.byte	94
 2852 0030 60        		.byte	96
 2853 0031 62        		.byte	98
 2854 0032 64        		.byte	100
 2855 0033 66        		.byte	102
 2856 0034 68        		.byte	104
 2857 0035 6A        		.byte	106
 2858 0036 6C        		.byte	108
 2859 0037 6E        		.byte	110
 2860 0038 70        		.byte	112
 2861 0039 72        		.byte	114
 2862 003a 74        		.byte	116
 2863 003b 76        		.byte	118
 2864 003c 78        		.byte	120
 2865 003d 7A        		.byte	122
 2866 003e 7C        		.byte	124
 2867 003f 7E        		.byte	126
 2868 0040 80        		.byte	-128
 2869 0041 82        		.byte	-126
 2870 0042 84        		.byte	-124
 2871 0043 86        		.byte	-122
 2872 0044 88        		.byte	-120
 2873 0045 8A        		.byte	-118
 2874 0046 8C        		.byte	-116
 2875 0047 8E        		.byte	-114
 2876 0048 90        		.byte	-112
 2877 0049 92        		.byte	-110
 2878 004a 94        		.byte	-108
 2879 004b 96        		.byte	-106
 2880 004c 98        		.byte	-104
 2881 004d 9A        		.byte	-102
 2882 004e 9C        		.byte	-100
 2883 004f 9E        		.byte	-98
 2884 0050 A0        		.byte	-96
 2885 0051 A2        		.byte	-94
 2886 0052 A4        		.byte	-92
 2887 0053 A6        		.byte	-90
 2888 0054 A8        		.byte	-88
 2889 0055 AA        		.byte	-86
 2890 0056 AC        		.byte	-84
 2891 0057 AE        		.byte	-82
 2892 0058 B0        		.byte	-80
 2893 0059 B2        		.byte	-78
 2894 005a B4        		.byte	-76
 2895 005b B6        		.byte	-74
 2896 005c B8        		.byte	-72
 2897 005d BA        		.byte	-70
 2898 005e BC        		.byte	-68
 2899 005f BE        		.byte	-66
 2900 0060 C0        		.byte	-64
 2901 0061 C2        		.byte	-62
 2902 0062 C4        		.byte	-60
 2903 0063 C6        		.byte	-58
 2904 0064 C8        		.byte	-56
 2905 0065 CA        		.byte	-54
 2906 0066 CC        		.byte	-52
 2907 0067 CE        		.byte	-50
 2908 0068 D0        		.byte	-48
 2909 0069 D2        		.byte	-46
 2910 006a D4        		.byte	-44
 2911 006b D6        		.byte	-42
 2912 006c D8        		.byte	-40
 2913 006d DA        		.byte	-38
 2914 006e DC        		.byte	-36
 2915 006f DE        		.byte	-34
 2916 0070 E0        		.byte	-32
 2917 0071 E2        		.byte	-30
 2918 0072 E4        		.byte	-28
 2919 0073 E6        		.byte	-26
 2920 0074 E8        		.byte	-24
 2921 0075 EA        		.byte	-22
 2922 0076 EC        		.byte	-20
 2923 0077 EE        		.byte	-18
 2924 0078 F0        		.byte	-16
 2925 0079 F2        		.byte	-14
 2926 007a F4        		.byte	-12
 2927 007b F6        		.byte	-10
 2928 007c F8        		.byte	-8
 2929 007d FA        		.byte	-6
 2930 007e FC        		.byte	-4
 2931 007f FE        		.byte	-2
 2932 0080 FF        		.byte	-1
 2933 0081 FD        		.byte	-3
 2934 0082 FB        		.byte	-5
 2935 0083 F9        		.byte	-7
 2936 0084 F7        		.byte	-9
 2937 0085 F5        		.byte	-11
 2938 0086 F3        		.byte	-13
 2939 0087 F1        		.byte	-15
 2940 0088 EF        		.byte	-17
 2941 0089 EF        		.byte	-17
 2942 008a EB        		.byte	-21
 2943 008b E9        		.byte	-23
 2944 008c E7        		.byte	-25
 2945 008d E5        		.byte	-27
 2946 008e E3        		.byte	-29
 2947 008f E1        		.byte	-31
 2948 0090 DF        		.byte	-33
 2949 0091 DD        		.byte	-35
 2950 0092 DB        		.byte	-37
 2951 0093 D9        		.byte	-39
 2952 0094 D7        		.byte	-41
 2953 0095 D5        		.byte	-43
 2954 0096 D3        		.byte	-45
 2955 0097 D1        		.byte	-47
 2956 0098 CF        		.byte	-49
 2957 0099 CF        		.byte	-49
 2958 009a CB        		.byte	-53
 2959 009b C9        		.byte	-55
 2960 009c C7        		.byte	-57
 2961 009d C5        		.byte	-59
 2962 009e C3        		.byte	-61
 2963 009f C1        		.byte	-63
 2964 00a0 BF        		.byte	-65
 2965 00a1 BD        		.byte	-67
 2966 00a2 BB        		.byte	-69
 2967 00a3 B9        		.byte	-71
 2968 00a4 B7        		.byte	-73
 2969 00a5 B5        		.byte	-75
 2970 00a6 B3        		.byte	-77
 2971 00a7 B1        		.byte	-79
 2972 00a8 AF        		.byte	-81
 2973 00a9 AF        		.byte	-81
 2974 00aa AB        		.byte	-85
 2975 00ab A9        		.byte	-87
 2976 00ac A7        		.byte	-89
 2977 00ad A5        		.byte	-91
 2978 00ae A3        		.byte	-93
 2979 00af A1        		.byte	-95
 2980 00b0 9F        		.byte	-97
 2981 00b1 9D        		.byte	-99
 2982 00b2 9B        		.byte	-101
 2983 00b3 99        		.byte	-103
 2984 00b4 97        		.byte	-105
 2985 00b5 95        		.byte	-107
 2986 00b6 93        		.byte	-109
 2987 00b7 91        		.byte	-111
 2988 00b8 8F        		.byte	-113
 2989 00b9 8F        		.byte	-113
 2990 00ba 8B        		.byte	-117
 2991 00bb 89        		.byte	-119
 2992 00bc 87        		.byte	-121
 2993 00bd 85        		.byte	-123
 2994 00be 83        		.byte	-125
 2995 00bf 81        		.byte	-127
 2996 00c0 7F        		.byte	127
 2997 00c1 7D        		.byte	125
 2998 00c2 7B        		.byte	123
 2999 00c3 79        		.byte	121
 3000 00c4 77        		.byte	119
 3001 00c5 75        		.byte	117
 3002 00c6 73        		.byte	115
 3003 00c7 71        		.byte	113
 3004 00c8 6F        		.byte	111
 3005 00c9 6F        		.byte	111
 3006 00ca 6B        		.byte	107
 3007 00cb 69        		.byte	105
 3008 00cc 67        		.byte	103
 3009 00cd 65        		.byte	101
 3010 00ce 63        		.byte	99
 3011 00cf 61        		.byte	97
 3012 00d0 5F        		.byte	95
 3013 00d1 5D        		.byte	93
 3014 00d2 5B        		.byte	91
 3015 00d3 59        		.byte	89
 3016 00d4 57        		.byte	87
 3017 00d5 55        		.byte	85
 3018 00d6 53        		.byte	83
 3019 00d7 51        		.byte	81
 3020 00d8 4F        		.byte	79
 3021 00d9 4F        		.byte	79
 3022 00da 4B        		.byte	75
 3023 00db 49        		.byte	73
 3024 00dc 47        		.byte	71
 3025 00dd 45        		.byte	69
 3026 00de 43        		.byte	67
 3027 00df 41        		.byte	65
 3028 00e0 3F        		.byte	63
 3029 00e1 3D        		.byte	61
 3030 00e2 3B        		.byte	59
 3031 00e3 39        		.byte	57
 3032 00e4 37        		.byte	55
 3033 00e5 35        		.byte	53
 3034 00e6 33        		.byte	51
 3035 00e7 31        		.byte	49
 3036 00e8 2F        		.byte	47
 3037 00e9 2F        		.byte	47
 3038 00ea 2B        		.byte	43
 3039 00eb 29        		.byte	41
 3040 00ec 27        		.byte	39
 3041 00ed 25        		.byte	37
 3042 00ee 23        		.byte	35
 3043 00ef 21        		.byte	33
 3044 00f0 1F        		.byte	31
 3045 00f1 1D        		.byte	29
 3046 00f2 1B        		.byte	27
 3047 00f3 19        		.byte	25
 3048 00f4 17        		.byte	23
 3049 00f5 15        		.byte	21
 3050 00f6 13        		.byte	19
 3051 00f7 11        		.byte	17
 3052 00f8 0F        		.byte	15
 3053 00f9 0F        		.byte	15
 3054 00fa 0B        		.byte	11
 3055 00fb 09        		.byte	9
 3056 00fc 07        		.byte	7
 3057 00fd 05        		.byte	5
 3058 00fe 03        		.byte	3
 3059 00ff 01        		.byte	1
 3060               	.global	ECG
 3061               		.section	.MySection6,"a",@progbits
 3064               	ECG:
 3065 0000 49        		.byte	73
 3066 0001 4A        		.byte	74
 3067 0002 4B        		.byte	75
 3068 0003 4B        		.byte	75
 3069 0004 4A        		.byte	74
 3070 0005 49        		.byte	73
 3071 0006 49        		.byte	73
 3072 0007 49        		.byte	73
 3073 0008 49        		.byte	73
 3074 0009 48        		.byte	72
 3075 000a 47        		.byte	71
 3076 000b 45        		.byte	69
 3077 000c 44        		.byte	68
 3078 000d 43        		.byte	67
 3079 000e 43        		.byte	67
 3080 000f 43        		.byte	67
 3081 0010 44        		.byte	68
 3082 0011 44        		.byte	68
 3083 0012 43        		.byte	67
 3084 0013 41        		.byte	65
 3085 0014 3E        		.byte	62
 3086 0015 3D        		.byte	61
 3087 0016 3B        		.byte	59
 3088 0017 39        		.byte	57
 3089 0018 38        		.byte	56
 3090 0019 37        		.byte	55
 3091 001a 37        		.byte	55
 3092 001b 36        		.byte	54
 3093 001c 36        		.byte	54
 3094 001d 36        		.byte	54
 3095 001e 37        		.byte	55
 3096 001f 37        		.byte	55
 3097 0020 37        		.byte	55
 3098 0021 37        		.byte	55
 3099 0022 37        		.byte	55
 3100 0023 37        		.byte	55
 3101 0024 36        		.byte	54
 3102 0025 35        		.byte	53
 3103 0026 33        		.byte	51
 3104 0027 32        		.byte	50
 3105 0028 31        		.byte	49
 3106 0029 31        		.byte	49
 3107 002a 34        		.byte	52
 3108 002b 3D        		.byte	61
 3109 002c 4D        		.byte	77
 3110 002d 65        		.byte	101
 3111 002e 84        		.byte	-124
 3112 002f A9        		.byte	-87
 3113 0030 CF        		.byte	-49
 3114 0031 EE        		.byte	-18
 3115 0032 FF        		.byte	-1
 3116 0033 FE        		.byte	-2
 3117 0034 EA        		.byte	-22
 3118 0035 C6        		.byte	-58
 3119 0036 9A        		.byte	-102
 3120 0037 6D        		.byte	109
 3121 0038 44        		.byte	68
 3122 0039 25        		.byte	37
 3123 003a 11        		.byte	17
 3124 003b 05        		.byte	5
 3125 003c 00        		.byte	0
 3126 003d 01        		.byte	1
 3127 003e 06        		.byte	6
 3128 003f 0D        		.byte	13
 3129 0040 14        		.byte	20
 3130 0041 1C        		.byte	28
 3131 0042 24        		.byte	36
 3132 0043 2D        		.byte	45
 3133 0044 34        		.byte	52
 3134 0045 39        		.byte	57
 3135 0046 3D        		.byte	61
 3136 0047 40        		.byte	64
 3137 0048 41        		.byte	65
 3138 0049 42        		.byte	66
 3139 004a 43        		.byte	67
 3140 004b 44        		.byte	68
 3141 004c 44        		.byte	68
 3142 004d 45        		.byte	69
 3143 004e 46        		.byte	70
 3144 004f 47        		.byte	71
 3145 0050 47        		.byte	71
 3146 0051 47        		.byte	71
 3147 0052 47        		.byte	71
 3148 0053 47        		.byte	71
 3149 0054 47        		.byte	71
 3150 0055 47        		.byte	71
 3151 0056 47        		.byte	71
 3152 0057 48        		.byte	72
 3153 0058 48        		.byte	72
 3154 0059 48        		.byte	72
 3155 005a 49        		.byte	73
 3156 005b 49        		.byte	73
 3157 005c 4A        		.byte	74
 3158 005d 4B        		.byte	75
 3159 005e 4B        		.byte	75
 3160 005f 4C        		.byte	76
 3161 0060 4D        		.byte	77
 3162 0061 4E        		.byte	78
 3163 0062 4F        		.byte	79
 3164 0063 50        		.byte	80
 3165 0064 51        		.byte	81
 3166 0065 52        		.byte	82
 3167 0066 53        		.byte	83
 3168 0067 54        		.byte	84
 3169 0068 56        		.byte	86
 3170 0069 58        		.byte	88
 3171 006a 5B        		.byte	91
 3172 006b 5D        		.byte	93
 3173 006c 60        		.byte	96
 3174 006d 62        		.byte	98
 3175 006e 64        		.byte	100
 3176 006f 66        		.byte	102
 3177 0070 68        		.byte	104
 3178 0071 6B        		.byte	107
 3179 0072 6D        		.byte	109
 3180 0073 70        		.byte	112
 3181 0074 73        		.byte	115
 3182 0075 76        		.byte	118
 3183 0076 79        		.byte	121
 3184 0077 7B        		.byte	123
 3185 0078 7D        		.byte	125
 3186 0079 7E        		.byte	126
 3187 007a 7F        		.byte	127
 3188 007b 7F        		.byte	127
 3189 007c 7F        		.byte	127
 3190 007d 7F        		.byte	127
 3191 007e 7F        		.byte	127
 3192 007f 7E        		.byte	126
 3193 0080 7D        		.byte	125
 3194 0081 7C        		.byte	124
 3195 0082 79        		.byte	121
 3196 0083 77        		.byte	119
 3197 0084 74        		.byte	116
 3198 0085 71        		.byte	113
 3199 0086 6D        		.byte	109
 3200 0087 69        		.byte	105
 3201 0088 66        		.byte	102
 3202 0089 62        		.byte	98
 3203 008a 5F        		.byte	95
 3204 008b 5C        		.byte	92
 3205 008c 59        		.byte	89
 3206 008d 57        		.byte	87
 3207 008e 54        		.byte	84
 3208 008f 51        		.byte	81
 3209 0090 4F        		.byte	79
 3210 0091 4D        		.byte	77
 3211 0092 4C        		.byte	76
 3212 0093 4B        		.byte	75
 3213 0094 4A        		.byte	74
 3214 0095 49        		.byte	73
 3215 0096 48        		.byte	72
 3216 0097 46        		.byte	70
 3217 0098 45        		.byte	69
 3218 0099 44        		.byte	68
 3219 009a 43        		.byte	67
 3220 009b 43        		.byte	67
 3221 009c 43        		.byte	67
 3222 009d 44        		.byte	68
 3223 009e 44        		.byte	68
 3224 009f 44        		.byte	68
 3225 00a0 45        		.byte	69
 3226 00a1 45        		.byte	69
 3227 00a2 45        		.byte	69
 3228 00a3 45        		.byte	69
 3229 00a4 45        		.byte	69
 3230 00a5 45        		.byte	69
 3231 00a6 45        		.byte	69
 3232 00a7 46        		.byte	70
 3233 00a8 47        		.byte	71
 3234 00a9 48        		.byte	72
 3235 00aa 49        		.byte	73
 3236 00ab 49        		.byte	73
 3237 00ac 4A        		.byte	74
 3238 00ad 4A        		.byte	74
 3239 00ae 4B        		.byte	75
 3240 00af 4B        		.byte	75
 3241 00b0 4B        		.byte	75
 3242 00b1 4B        		.byte	75
 3243 00b2 4B        		.byte	75
 3244 00b3 4B        		.byte	75
 3245 00b4 4A        		.byte	74
 3246 00b5 4A        		.byte	74
 3247 00b6 49        		.byte	73
 3248 00b7 49        		.byte	73
 3249 00b8 49        		.byte	73
 3250 00b9 49        		.byte	73
 3251 00ba 48        		.byte	72
 3252 00bb 48        		.byte	72
 3253 00bc 48        		.byte	72
 3254 00bd 47        		.byte	71
 3255 00be 47        		.byte	71
 3256 00bf 47        		.byte	71
 3257 00c0 47        		.byte	71
 3258 00c1 47        		.byte	71
 3259 00c2 47        		.byte	71
 3260 00c3 47        		.byte	71
 3261 00c4 46        		.byte	70
 3262 00c5 46        		.byte	70
 3263 00c6 46        		.byte	70
 3264 00c7 45        		.byte	69
 3265 00c8 45        		.byte	69
 3266 00c9 45        		.byte	69
 3267 00ca 45        		.byte	69
 3268 00cb 45        		.byte	69
 3269 00cc 46        		.byte	70
 3270 00cd 46        		.byte	70
 3271 00ce 46        		.byte	70
 3272 00cf 45        		.byte	69
 3273 00d0 44        		.byte	68
 3274 00d1 44        		.byte	68
 3275 00d2 43        		.byte	67
 3276 00d3 43        		.byte	67
 3277 00d4 43        		.byte	67
 3278 00d5 43        		.byte	67
 3279 00d6 42        		.byte	66
 3280 00d7 42        		.byte	66
 3281 00d8 42        		.byte	66
 3282 00d9 41        		.byte	65
 3283 00da 41        		.byte	65
 3284 00db 41        		.byte	65
 3285 00dc 41        		.byte	65
 3286 00dd 41        		.byte	65
 3287 00de 41        		.byte	65
 3288 00df 41        		.byte	65
 3289 00e0 41        		.byte	65
 3290 00e1 40        		.byte	64
 3291 00e2 40        		.byte	64
 3292 00e3 3F        		.byte	63
 3293 00e4 3F        		.byte	63
 3294 00e5 40        		.byte	64
 3295 00e6 40        		.byte	64
 3296 00e7 41        		.byte	65
 3297 00e8 41        		.byte	65
 3298 00e9 41        		.byte	65
 3299 00ea 41        		.byte	65
 3300 00eb 41        		.byte	65
 3301 00ec 41        		.byte	65
 3302 00ed 41        		.byte	65
 3303 00ee 40        		.byte	64
 3304 00ef 40        		.byte	64
 3305 00f0 40        		.byte	64
 3306 00f1 40        		.byte	64
 3307 00f2 40        		.byte	64
 3308 00f3 40        		.byte	64
 3309 00f4 40        		.byte	64
 3310 00f5 40        		.byte	64
 3311 00f6 41        		.byte	65
 3312 00f7 41        		.byte	65
 3313 00f8 41        		.byte	65
 3314 00f9 42        		.byte	66
 3315 00fa 43        		.byte	67
 3316 00fb 44        		.byte	68
 3317 00fc 45        		.byte	69
 3318 00fd 47        		.byte	71
 3319 00fe 48        		.byte	72
 3320 00ff 49        		.byte	73
 3321               	.global	SIGNALS
 3322               		.data
 3325               	SIGNALS:
 3326 002b 0000      		.word	sinewave
 3327 002d 0000      		.word	squarewave
 3328 002f 0000      		.word	trianglewave
 3329 0031 0000      		.word	sawtoothwave
 3330 0033 0000      		.word	rewsawtoothwave
 3331 0035 0000      		.word	ECG
 3334               	lcd_str:
 3335 0037 0000 00   		.skip 3,0
 3336 003a 02        		.byte	2
 3337 003b 0000 0000 		.skip 4,0
 3338 003f 0000      		.word	gs(LCDsendstream)
 3339 0041 0000      		.word	0
 3340 0043 0000      		.word	0
 3341               		.comm SG,19,1
 3462               	.Letext0:
DEFINED SYMBOLS
                            *ABS*:00000000 main.c
C:\Users\MMM\AppData\Local\Temp/ccxTMXZP.s:2      *ABS*:0000003f __SREG__
C:\Users\MMM\AppData\Local\Temp/ccxTMXZP.s:3      *ABS*:0000003e __SP_H__
C:\Users\MMM\AppData\Local\Temp/ccxTMXZP.s:4      *ABS*:0000003d __SP_L__
C:\Users\MMM\AppData\Local\Temp/ccxTMXZP.s:5      *ABS*:00000034 __CCP__
C:\Users\MMM\AppData\Local\Temp/ccxTMXZP.s:6      *ABS*:00000000 __tmp_reg__
C:\Users\MMM\AppData\Local\Temp/ccxTMXZP.s:7      *ABS*:00000001 __zero_reg__
C:\Users\MMM\AppData\Local\Temp/ccxTMXZP.s:18     .text:00000000 delay1s
C:\Users\MMM\AppData\Local\Temp/ccxTMXZP.s:57     .text:00000014 Timer2_Init
C:\Users\MMM\AppData\Local\Temp/ccxTMXZP.s:77     .text:0000001a Timer2_Start
C:\Users\MMM\AppData\Local\Temp/ccxTMXZP.s:97     .text:00000028 Timer2_Stop
C:\Users\MMM\AppData\Local\Temp/ccxTMXZP.s:117    .text:00000036 __vector_1
                            *COM*:00000013 SG
C:\Users\MMM\AppData\Local\Temp/ccxTMXZP.s:148    .text:00000058 Timer1_Start
C:\Users\MMM\AppData\Local\Temp/ccxTMXZP.s:208    .text:0000008e Timer1_Stop
C:\Users\MMM\AppData\Local\Temp/ccxTMXZP.s:221    .text:00000092 LCDsendstream
C:\Users\MMM\AppData\Local\Temp/ccxTMXZP.s:247    .text:0000009c Freq_Update
C:\Users\MMM\AppData\Local\Temp/ccxTMXZP.s:374    .text:00000198 Menu_Update
C:\Users\MMM\AppData\Local\Temp/ccxTMXZP.s:1690   .data:00000019 MENU
C:\Users\MMM\AppData\Local\Temp/ccxTMXZP.s:1722   .progmem.data:000000be CLR
C:\Users\MMM\AppData\Local\Temp/ccxTMXZP.s:1752   .progmem.data:00000109 RND
C:\Users\MMM\AppData\Local\Temp/ccxTMXZP.s:1704   .progmem.data:000000a2 MNON
C:\Users\MMM\AppData\Local\Temp/ccxTMXZP.s:1710   .progmem.data:000000a7 MNOFF
C:\Users\MMM\AppData\Local\Temp/ccxTMXZP.s:580    .text:00000322 Main_Init
C:\Users\MMM\AppData\Local\Temp/ccxTMXZP.s:3334   .data:00000037 lcd_str
C:\Users\MMM\AppData\Local\Temp/ccxTMXZP.s:771    .text:00000490 main
C:\Users\MMM\AppData\Local\Temp/ccxTMXZP.s:3325   .data:0000002b SIGNALS
C:\Users\MMM\AppData\Local\Temp/ccxTMXZP.s:912    .text:00000570 __vector_4
C:\Users\MMM\AppData\Local\Temp/ccxTMXZP.s:1635   .progmem.data:00000000 MN000
C:\Users\MMM\AppData\Local\Temp/ccxTMXZP.s:1641   .progmem.data:00000012 MN100
C:\Users\MMM\AppData\Local\Temp/ccxTMXZP.s:1647   .progmem.data:00000024 MN200
C:\Users\MMM\AppData\Local\Temp/ccxTMXZP.s:1653   .progmem.data:00000036 MN300
C:\Users\MMM\AppData\Local\Temp/ccxTMXZP.s:1659   .progmem.data:00000048 MN400
C:\Users\MMM\AppData\Local\Temp/ccxTMXZP.s:1665   .progmem.data:0000005a MN500
C:\Users\MMM\AppData\Local\Temp/ccxTMXZP.s:1671   .progmem.data:0000006c MN600
C:\Users\MMM\AppData\Local\Temp/ccxTMXZP.s:1677   .progmem.data:0000007e MN700
C:\Users\MMM\AppData\Local\Temp/ccxTMXZP.s:1683   .progmem.data:00000090 MN800
C:\Users\MMM\AppData\Local\Temp/ccxTMXZP.s:1716   .progmem.data:000000ac NA
C:\Users\MMM\AppData\Local\Temp/ccxTMXZP.s:1728   .progmem.data:000000d0 MNClrfreq
C:\Users\MMM\AppData\Local\Temp/ccxTMXZP.s:1734   .progmem.data:000000dd TOEEPROM
C:\Users\MMM\AppData\Local\Temp/ccxTMXZP.s:1740   .progmem.data:000000ee ONEMHZ
C:\Users\MMM\AppData\Local\Temp/ccxTMXZP.s:1746   .progmem.data:000000fd welcomeln1
C:\Users\MMM\AppData\Local\Temp/ccxTMXZP.s:1759   .MySection1:00000000 sinewave
C:\Users\MMM\AppData\Local\Temp/ccxTMXZP.s:2020   .MySection2:00000000 squarewave
C:\Users\MMM\AppData\Local\Temp/ccxTMXZP.s:2281   .MySection3:00000000 sawtoothwave
C:\Users\MMM\AppData\Local\Temp/ccxTMXZP.s:2542   .MySection4:00000000 rewsawtoothwave
C:\Users\MMM\AppData\Local\Temp/ccxTMXZP.s:2803   .MySection5:00000000 trianglewave
C:\Users\MMM\AppData\Local\Temp/ccxTMXZP.s:3064   .MySection6:00000000 ECG

UNDEFINED SYMBOLS
LCDsendChar
LCDGotoXY
printf
LCDclr
CopyStringtoLCD
__iob
LCDinit
LCDcursorOFF
__eerd_byte_m16
__eewr_byte_m16
__floatunsisf
__divsf3
__fixunssfsi
rand
__mulsi3
__udivmodsi4
__do_copy_data
__do_clear_bss
